
obj/net/ns:     file format elf32-i386

Disassembly of section .text:

00800020 <_start>:
// starts us running when we are initially loaded into a new environment.
.text
.globl _start
_start:
	// See if we were started with arguments on the stack
	cmpl $USTACKTOP, %esp
  800020:	81 fc 00 e0 bf ee    	cmp    $0xeebfe000,%esp
	jne args_exist
  800026:	75 04                	jne    80002c <args_exist>

	// If not, push dummy argc/argv arguments.
	// This happens when we are loaded by the kernel,
	// because the kernel does not know about passing arguments.
	pushl $0
  800028:	6a 00                	push   $0x0
	pushl $0
  80002a:	6a 00                	push   $0x0

0080002c <args_exist>:

args_exist:
	call libmain
  80002c:	e8 03 08 00 00       	call   800834 <libmain>
1:	jmp 1b
  800031:	eb fe                	jmp    800031 <args_exist+0x5>
	...

00800040 <put_buffer>:

	return va;
}

static void
put_buffer(void *va) {
  800040:	55                   	push   %ebp
  800041:	89 e5                	mov    %esp,%ebp
	int i = ((uint32_t)va - REQVA) / PGSIZE;
	buse[i] = 0;
  800043:	2d 00 b0 fe 0f       	sub    $0xffeb000,%eax
  800048:	c1 e8 0c             	shr    $0xc,%eax
  80004b:	c7 04 85 80 83 81 00 	movl   $0x0,0x818380(,%eax,4)
  800052:	00 00 00 00 
}
  800056:	5d                   	pop    %ebp
  800057:	c3                   	ret    

00800058 <umain>:
	serve();
}

void
umain(void)
{
  800058:	55                   	push   %ebp
  800059:	89 e5                	mov    %esp,%ebp
  80005b:	53                   	push   %ebx
  80005c:	83 ec 14             	sub    $0x14,%esp
	envid_t ns_envid = sys_getenvid();
  80005f:	e8 49 17 00 00       	call   8017ad <sys_getenvid>
  800064:	89 c3                	mov    %eax,%ebx

	binaryname = "ns";
  800066:	c7 05 00 80 81 00 80 	movl   $0x812080,0x818000
  80006d:	20 81 00 

	// fork off the timer thread which will send us periodic messages
	timer_envid = fork();
  800070:	e8 14 1c 00 00       	call   801c89 <fork>
  800075:	a3 64 83 81 00       	mov    %eax,0x818364
	if (timer_envid < 0)
  80007a:	85 c0                	test   %eax,%eax
  80007c:	79 1c                	jns    80009a <umain+0x42>
		panic("error forking");
  80007e:	c7 44 24 08 83 20 81 	movl   $0x812083,0x8(%esp)
  800085:	00 
  800086:	c7 44 24 04 43 01 00 	movl   $0x143,0x4(%esp)
  80008d:	00 
  80008e:	c7 04 24 91 20 81 00 	movl   $0x812091,(%esp)
  800095:	e8 12 08 00 00       	call   8008ac <_panic>
	else if (timer_envid == 0) {
  80009a:	85 c0                	test   %eax,%eax
  80009c:	75 15                	jne    8000b3 <umain+0x5b>
		timer(ns_envid, TIMER_INTERVAL);
  80009e:	c7 44 24 04 fa 00 00 	movl   $0xfa,0x4(%esp)
  8000a5:	00 
  8000a6:	89 1c 24             	mov    %ebx,(%esp)
  8000a9:	e8 d2 06 00 00       	call   800780 <timer>
  8000ae:	e9 a3 00 00 00       	jmp    800156 <umain+0xfe>
		return;
	}

	// fork off the input thread which will poll the NIC driver for input
	// packets
	input_envid = fork();
  8000b3:	e8 d1 1b 00 00       	call   801c89 <fork>
  8000b8:	a3 68 83 81 00       	mov    %eax,0x818368
	if (input_envid < 0)
  8000bd:	85 c0                	test   %eax,%eax
  8000bf:	79 1c                	jns    8000dd <umain+0x85>
		panic("error forking");
  8000c1:	c7 44 24 08 83 20 81 	movl   $0x812083,0x8(%esp)
  8000c8:	00 
  8000c9:	c7 44 24 04 4d 01 00 	movl   $0x14d,0x4(%esp)
  8000d0:	00 
  8000d1:	c7 04 24 91 20 81 00 	movl   $0x812091,(%esp)
  8000d8:	e8 cf 07 00 00       	call   8008ac <_panic>
	else if (input_envid == 0) {
  8000dd:	85 c0                	test   %eax,%eax
  8000df:	75 0a                	jne    8000eb <umain+0x93>
		input(ns_envid);
  8000e1:	89 1c 24             	mov    %ebx,(%esp)
  8000e4:	e8 2b 07 00 00       	call   800814 <input>
  8000e9:	eb 6b                	jmp    800156 <umain+0xfe>
		return;
	}

	// fork off the output thread that will send the packets to the NIC
	// driver
	output_envid = fork();
  8000eb:	90                   	nop    
  8000ec:	8d 74 26 00          	lea    0x0(%esi),%esi
  8000f0:	e8 94 1b 00 00       	call   801c89 <fork>
  8000f5:	a3 6c 83 81 00       	mov    %eax,0x81836c
	if (output_envid < 0)
  8000fa:	85 c0                	test   %eax,%eax
  8000fc:	79 1c                	jns    80011a <umain+0xc2>
		panic("error forking");
  8000fe:	c7 44 24 08 83 20 81 	movl   $0x812083,0x8(%esp)
  800105:	00 
  800106:	c7 44 24 04 57 01 00 	movl   $0x157,0x4(%esp)
  80010d:	00 
  80010e:	c7 04 24 91 20 81 00 	movl   $0x812091,(%esp)
  800115:	e8 92 07 00 00       	call   8008ac <_panic>
	else if (output_envid == 0) {
  80011a:	85 c0                	test   %eax,%eax
  80011c:	75 0a                	jne    800128 <umain+0xd0>
		output(ns_envid);
  80011e:	89 1c 24             	mov    %ebx,(%esp)
  800121:	e8 fe 06 00 00       	call   800824 <output>
  800126:	eb 2e                	jmp    800156 <umain+0xfe>
		return;
	}

	// lwIP requires a user threading library; start the library and jump
	// into a thread to continue initialization. 
	thread_init();
  800128:	e8 23 d9 00 00       	call   80da50 <thread_init>
	thread_create(0, "main", tmain, 0);
  80012d:	c7 44 24 0c 00 00 00 	movl   $0x0,0xc(%esp)
  800134:	00 
  800135:	c7 44 24 08 0d 07 80 	movl   $0x80070d,0x8(%esp)
  80013c:	00 
  80013d:	c7 44 24 04 9c 20 81 	movl   $0x81209c,0x4(%esp)
  800144:	00 
  800145:	c7 04 24 00 00 00 00 	movl   $0x0,(%esp)
  80014c:	e8 e3 da 00 00       	call   80dc34 <thread_create>
	thread_yield();
  800151:	e8 a2 d9 00 00       	call   80daf8 <thread_yield>
	// never coming here!
}
  800156:	83 c4 14             	add    $0x14,%esp
  800159:	5b                   	pop    %ebx
  80015a:	5d                   	pop    %ebp
  80015b:	c3                   	ret    

0080015c <serve>:
	sys_page_unmap(0, (void*) args->req);
	free(args);
}

void
serve(void) {
  80015c:	55                   	push   %ebp
  80015d:	89 e5                	mov    %esp,%ebp
  80015f:	57                   	push   %edi
  800160:	56                   	push   %esi
  800161:	53                   	push   %ebx
  800162:	83 ec 2c             	sub    $0x2c,%esp
  800165:	bb 00 00 00 00       	mov    $0x0,%ebx
  80016a:	eb 08                	jmp    800174 <serve+0x18>
	while (1) {
		// ipc_recv will block the entire process, so we flush
		// all pending work from other threads.  We limit the
		// number of yields in case there's a rogue thread.
		for (i = 0; thread_wakeups_pending() && i < 32; ++i)
			thread_yield();
  80016c:	e8 87 d9 00 00       	call   80daf8 <thread_yield>
	
	while (1) {
		// ipc_recv will block the entire process, so we flush
		// all pending work from other threads.  We limit the
		// number of yields in case there's a rogue thread.
		for (i = 0; thread_wakeups_pending() && i < 32; ++i)
  800171:	83 c3 01             	add    $0x1,%ebx
  800174:	e8 28 d9 00 00       	call   80daa1 <thread_wakeups_pending>
  800179:	85 c0                	test   %eax,%eax
  80017b:	74 05                	je     800182 <serve+0x26>
  80017d:	83 fb 1f             	cmp    $0x1f,%ebx
  800180:	7e ea                	jle    80016c <serve+0x10>
			thread_yield();

		perm = 0;
  800182:	c7 45 ec 00 00 00 00 	movl   $0x0,-0x14(%ebp)
  800189:	ba 00 00 00 00       	mov    $0x0,%edx
get_buffer(void) {
	void *va;

	int i;
	for (i = 0; i < QUEUE_SIZE; i++)
		if (!buse[i]) break;
  80018e:	83 3c 95 80 83 81 00 	cmpl   $0x0,0x818380(,%edx,4)
  800195:	00 
  800196:	74 0a                	je     8001a2 <serve+0x46>
static void *
get_buffer(void) {
	void *va;

	int i;
	for (i = 0; i < QUEUE_SIZE; i++)
  800198:	83 c2 01             	add    $0x1,%edx
  80019b:	83 fa 14             	cmp    $0x14,%edx
  80019e:	74 07                	je     8001a7 <serve+0x4b>
  8001a0:	eb ec                	jmp    80018e <serve+0x32>
		if (!buse[i]) break;

	if (i == QUEUE_SIZE) {
  8001a2:	83 fa 14             	cmp    $0x14,%edx
  8001a5:	75 1c                	jne    8001c3 <serve+0x67>
		panic("NS: buffer overflow");
  8001a7:	c7 44 24 08 a1 20 81 	movl   $0x8120a1,0x8(%esp)
  8001ae:	00 
  8001af:	c7 44 24 04 3f 00 00 	movl   $0x3f,0x4(%esp)
  8001b6:	00 
  8001b7:	c7 04 24 91 20 81 00 	movl   $0x812091,(%esp)
  8001be:	e8 e9 06 00 00       	call   8008ac <_panic>
		return 0;
	}

	va = (void *)(REQVA + i * PGSIZE);
  8001c3:	89 d0                	mov    %edx,%eax
  8001c5:	c1 e0 0c             	shl    $0xc,%eax
  8001c8:	8d b0 00 b0 fe 0f    	lea    0xffeb000(%eax),%esi
	buse[i] = 1;
  8001ce:	c7 04 95 80 83 81 00 	movl   $0x1,0x818380(,%edx,4)
  8001d5:	01 00 00 00 
		for (i = 0; thread_wakeups_pending() && i < 32; ++i)
			thread_yield();

		perm = 0;
		va = get_buffer();
		reqno = ipc_recv((int32_t *) &whom, (void *) va, &perm);
  8001d9:	8d 45 ec             	lea    -0x14(%ebp),%eax
  8001dc:	89 44 24 08          	mov    %eax,0x8(%esp)
  8001e0:	89 74 24 04          	mov    %esi,0x4(%esp)
  8001e4:	8d 45 f0             	lea    -0x10(%ebp),%eax
  8001e7:	89 04 24             	mov    %eax,(%esp)
  8001ea:	e8 55 1c 00 00       	call   801e44 <ipc_recv>
  8001ef:	89 c3                	mov    %eax,%ebx
		if (debug) {
			cprintf("ns req %d from %08x\n", reqno, whom);
		}

		// first take care of requests that do not contain an argument page
		if (reqno == NSREQ_TIMER) {
  8001f1:	83 f8 0c             	cmp    $0xc,%eax
  8001f4:	75 69                	jne    80025f <serve+0x103>
			process_timer(whom);
  8001f6:	8b 5d f0             	mov    -0x10(%ebp),%ebx

static void
process_timer(envid_t envid) {
	uint32_t start, now, to;

	if (envid != timer_envid) {
  8001f9:	3b 1d 64 83 81 00    	cmp    0x818364,%ebx
  8001ff:	74 12                	je     800213 <serve+0xb7>
		cprintf("NS: received timer interrupt from envid %x not timer env\n", envid);
  800201:	89 5c 24 04          	mov    %ebx,0x4(%esp)
  800205:	c7 04 24 30 21 81 00 	movl   $0x812130,(%esp)
  80020c:	e8 68 07 00 00       	call   800979 <cprintf>
  800211:	eb 3b                	jmp    80024e <serve+0xf2>
		return;
	}

	start = sys_time_msec();
  800213:	e8 63 12 00 00       	call   80147b <sys_time_msec>
  800218:	89 c7                	mov    %eax,%edi
	thread_yield();
  80021a:	8d b6 00 00 00 00    	lea    0x0(%esi),%esi
  800220:	e8 d3 d8 00 00       	call   80daf8 <thread_yield>
	now = sys_time_msec();
  800225:	e8 51 12 00 00       	call   80147b <sys_time_msec>

	to = TIMER_INTERVAL - (now - start);
	ipc_send(envid, to, 0, 0);
  80022a:	c7 44 24 0c 00 00 00 	movl   $0x0,0xc(%esp)
  800231:	00 
  800232:	c7 44 24 08 00 00 00 	movl   $0x0,0x8(%esp)
  800239:	00 
  80023a:	29 c7                	sub    %eax,%edi
  80023c:	8d 87 fa 00 00 00    	lea    0xfa(%edi),%eax
  800242:	89 44 24 04          	mov    %eax,0x4(%esp)
  800246:	89 1c 24             	mov    %ebx,(%esp)
  800249:	e8 42 1b 00 00       	call   801d90 <ipc_send>
		}

		// first take care of requests that do not contain an argument page
		if (reqno == NSREQ_TIMER) {
			process_timer(whom);
			put_buffer(va);
  80024e:	89 f0                	mov    %esi,%eax
  800250:	e8 eb fd ff ff       	call   800040 <put_buffer>
  800255:	bb 00 00 00 00       	mov    $0x0,%ebx
  80025a:	e9 15 ff ff ff       	jmp    800174 <serve+0x18>
			continue;
		}

		// All remaining requests must contain an argument page
		if (!(perm & PTE_P)) {
  80025f:	f6 45 ec 01          	testb  $0x1,-0x14(%ebp)
  800263:	75 1d                	jne    800282 <serve+0x126>
			cprintf("Invalid request from %08x: no argument page\n", whom);
  800265:	8b 45 f0             	mov    -0x10(%ebp),%eax
  800268:	89 44 24 04          	mov    %eax,0x4(%esp)
  80026c:	c7 04 24 6c 21 81 00 	movl   $0x81216c,(%esp)
  800273:	e8 01 07 00 00       	call   800979 <cprintf>
  800278:	bb 00 00 00 00       	mov    $0x0,%ebx
  80027d:	e9 f2 fe ff ff       	jmp    800174 <serve+0x18>
			continue; // just leave it hanging...
		}

		// Since some lwIP socket calls will block, create a thread and
		// process the rest of the request in the thread.
		struct st_args *args = malloc(sizeof(struct st_args));
  800282:	c7 04 24 0c 00 00 00 	movl   $0xc,(%esp)
  800289:	e8 26 2b 00 00       	call   802db4 <malloc>
  80028e:	89 c2                	mov    %eax,%edx
		if (!args)
  800290:	85 c0                	test   %eax,%eax
  800292:	75 1c                	jne    8002b0 <serve+0x154>
			panic("could not allocate thread args structure");
  800294:	c7 44 24 08 9c 21 81 	movl   $0x81219c,0x8(%esp)
  80029b:	00 
  80029c:	c7 44 24 04 26 01 00 	movl   $0x126,0x4(%esp)
  8002a3:	00 
  8002a4:	c7 04 24 91 20 81 00 	movl   $0x812091,(%esp)
  8002ab:	e8 fc 05 00 00       	call   8008ac <_panic>

		args->reqno = reqno;
  8002b0:	89 18                	mov    %ebx,(%eax)
		args->whom = whom;
  8002b2:	8b 45 f0             	mov    -0x10(%ebp),%eax
  8002b5:	89 42 04             	mov    %eax,0x4(%edx)
		args->req = va;
  8002b8:	89 72 08             	mov    %esi,0x8(%edx)

		thread_create(0, "serve_thread", serve_thread, (uint32_t)args);
  8002bb:	89 54 24 0c          	mov    %edx,0xc(%esp)
  8002bf:	c7 44 24 08 ea 02 80 	movl   $0x8002ea,0x8(%esp)
  8002c6:	00 
  8002c7:	c7 44 24 04 b5 20 81 	movl   $0x8120b5,0x4(%esp)
  8002ce:	00 
  8002cf:	c7 04 24 00 00 00 00 	movl   $0x0,(%esp)
  8002d6:	e8 59 d9 00 00       	call   80dc34 <thread_create>
		thread_yield(); // let the thread created run
  8002db:	e8 18 d8 00 00       	call   80daf8 <thread_yield>
  8002e0:	bb 00 00 00 00       	mov    $0x0,%ebx
  8002e5:	e9 8a fe ff ff       	jmp    800174 <serve+0x18>

008002ea <serve_thread>:
	uint32_t whom;
	union Nsipc *req;
};

static void
serve_thread(uint32_t a) {
  8002ea:	55                   	push   %ebp
  8002eb:	89 e5                	mov    %esp,%ebp
  8002ed:	81 ec 98 00 00 00    	sub    $0x98,%esp
  8002f3:	89 5d f4             	mov    %ebx,-0xc(%ebp)
  8002f6:	89 75 f8             	mov    %esi,-0x8(%ebp)
  8002f9:	89 7d fc             	mov    %edi,-0x4(%ebp)
	struct st_args *args = (struct st_args *)a;
  8002fc:	8b 7d 08             	mov    0x8(%ebp),%edi
	union Nsipc *req = args->req;
  8002ff:	8b 77 08             	mov    0x8(%edi),%esi
	int r;

	switch (args->reqno) {
  800302:	83 3f 0a             	cmpl   $0xa,(%edi)
  800305:	0f 87 34 01 00 00    	ja     80043f <serve_thread+0x155>
  80030b:	8b 07                	mov    (%edi),%eax
  80030d:	ff 24 85 68 22 81 00 	jmp    *0x812268(,%eax,4)
	case NSREQ_ACCEPT:
	{
		struct Nsret_accept ret;
		r = lwip_accept(req->accept.req_s, &ret.ret_addr,
  800314:	8d 45 a0             	lea    -0x60(%ebp),%eax
  800317:	89 44 24 08          	mov    %eax,0x8(%esp)
  80031b:	8d 45 90             	lea    -0x70(%ebp),%eax
  80031e:	89 44 24 04          	mov    %eax,0x4(%esp)
  800322:	8b 06                	mov    (%esi),%eax
  800324:	89 04 24             	mov    %eax,(%esp)
  800327:	e8 a6 45 00 00       	call   8048d2 <lwip_accept>
  80032c:	89 c3                	mov    %eax,%ebx
				&ret.ret_addrlen);
		memmove(req, &ret, sizeof ret);
  80032e:	c7 44 24 08 14 00 00 	movl   $0x14,0x8(%esp)
  800335:	00 
  800336:	8d 45 90             	lea    -0x70(%ebp),%eax
  800339:	89 44 24 04          	mov    %eax,0x4(%esp)
  80033d:	89 34 24             	mov    %esi,(%esp)
  800340:	e8 a3 0e 00 00       	call   8011e8 <memmove>
  800345:	e9 13 01 00 00       	jmp    80045d <serve_thread+0x173>
		break;
	}
	case NSREQ_BIND:
		r = lwip_bind(req->bind.req_s, &req->bind.req_name,
  80034a:	8b 46 14             	mov    0x14(%esi),%eax
  80034d:	89 44 24 08          	mov    %eax,0x8(%esp)
  800351:	8d 46 04             	lea    0x4(%esi),%eax
  800354:	89 44 24 04          	mov    %eax,0x4(%esp)
  800358:	8b 06                	mov    (%esi),%eax
  80035a:	89 04 24             	mov    %eax,(%esp)
  80035d:	e8 b7 44 00 00       	call   804819 <lwip_bind>
  800362:	89 c3                	mov    %eax,%ebx
  800364:	e9 f4 00 00 00       	jmp    80045d <serve_thread+0x173>
			      req->bind.req_namelen);
		break;
	case NSREQ_SHUTDOWN:
		r = lwip_shutdown(req->shutdown.req_s, req->shutdown.req_how);
  800369:	8b 46 04             	mov    0x4(%esi),%eax
  80036c:	89 44 24 04          	mov    %eax,0x4(%esp)
  800370:	8b 06                	mov    (%esi),%eax
  800372:	89 04 24             	mov    %eax,(%esp)
  800375:	e8 49 43 00 00       	call   8046c3 <lwip_shutdown>
  80037a:	89 c3                	mov    %eax,%ebx
  80037c:	e9 dc 00 00 00       	jmp    80045d <serve_thread+0x173>
		break;
	case NSREQ_CLOSE:
		r = lwip_close(req->close.req_s);
  800381:	8b 06                	mov    (%esi),%eax
  800383:	89 04 24             	mov    %eax,(%esp)
  800386:	e8 bc 42 00 00       	call   804647 <lwip_close>
  80038b:	89 c3                	mov    %eax,%ebx
  80038d:	e9 cb 00 00 00       	jmp    80045d <serve_thread+0x173>
		break;
	case NSREQ_CONNECT:
		r = lwip_connect(req->connect.req_s, &req->connect.req_name,
  800392:	8b 46 14             	mov    0x14(%esi),%eax
  800395:	89 44 24 08          	mov    %eax,0x8(%esp)
  800399:	8d 46 04             	lea    0x4(%esi),%eax
  80039c:	89 44 24 04          	mov    %eax,0x4(%esp)
  8003a0:	8b 06                	mov    (%esi),%eax
  8003a2:	89 04 24             	mov    %eax,(%esp)
  8003a5:	e8 b6 43 00 00       	call   804760 <lwip_connect>
  8003aa:	89 c3                	mov    %eax,%ebx
  8003ac:	e9 ac 00 00 00       	jmp    80045d <serve_thread+0x173>
				 req->connect.req_namelen);
		break;
	case NSREQ_LISTEN:
		r = lwip_listen(req->listen.req_s, req->listen.req_backlog);
  8003b1:	8b 46 04             	mov    0x4(%esi),%eax
  8003b4:	89 44 24 04          	mov    %eax,0x4(%esp)
  8003b8:	8b 06                	mov    (%esi),%eax
  8003ba:	89 04 24             	mov    %eax,(%esp)
  8003bd:	e8 14 43 00 00       	call   8046d6 <lwip_listen>
  8003c2:	89 c3                	mov    %eax,%ebx
  8003c4:	e9 94 00 00 00       	jmp    80045d <serve_thread+0x173>
		break;
	case NSREQ_RECV:
		// Note that we read the request fields before we
		// overwrite it with the response data.
		r = lwip_recv(req->recv.req_s, req->recvRet.ret_buf,
  8003c9:	8b 46 08             	mov    0x8(%esi),%eax
  8003cc:	89 44 24 0c          	mov    %eax,0xc(%esp)
  8003d0:	8b 46 04             	mov    0x4(%esi),%eax
  8003d3:	89 44 24 08          	mov    %eax,0x8(%esp)
  8003d7:	89 74 24 04          	mov    %esi,0x4(%esp)
  8003db:	8b 06                	mov    (%esi),%eax
  8003dd:	89 04 24             	mov    %eax,(%esp)
  8003e0:	e8 f1 41 00 00       	call   8045d6 <lwip_recv>
  8003e5:	89 c3                	mov    %eax,%ebx
  8003e7:	eb 74                	jmp    80045d <serve_thread+0x173>
			      req->recv.req_len, req->recv.req_flags);
		break;
	case NSREQ_SEND:
		r = lwip_send(req->send.req_s, &req->send.req_buf,
  8003e9:	8b 46 08             	mov    0x8(%esi),%eax
  8003ec:	89 44 24 0c          	mov    %eax,0xc(%esp)
  8003f0:	8b 46 04             	mov    0x4(%esi),%eax
  8003f3:	89 44 24 08          	mov    %eax,0x8(%esp)
  8003f7:	8d 46 0c             	lea    0xc(%esi),%eax
  8003fa:	89 44 24 04          	mov    %eax,0x4(%esp)
  8003fe:	8b 06                	mov    (%esi),%eax
  800400:	89 04 24             	mov    %eax,(%esp)
  800403:	e8 34 3d 00 00       	call   80413c <lwip_send>
  800408:	89 c3                	mov    %eax,%ebx
  80040a:	eb 51                	jmp    80045d <serve_thread+0x173>
			      req->send.req_size, req->send.req_flags);
		break;
	case NSREQ_SOCKET:
		r = lwip_socket(req->socket.req_domain, req->socket.req_type,
  80040c:	8b 46 08             	mov    0x8(%esi),%eax
  80040f:	89 44 24 08          	mov    %eax,0x8(%esp)
  800413:	8b 46 04             	mov    0x4(%esi),%eax
  800416:	89 44 24 04          	mov    %eax,0x4(%esp)
  80041a:	8b 06                	mov    (%esi),%eax
  80041c:	89 04 24             	mov    %eax,(%esp)
  80041f:	e8 2e 3c 00 00       	call   804052 <lwip_socket>
  800424:	89 c3                	mov    %eax,%ebx
  800426:	eb 35                	jmp    80045d <serve_thread+0x173>
				req->socket.req_protocol);
		break;
	case NSREQ_INPUT:
		jif_input(&nif, (void *)&req->pkt);
  800428:	89 74 24 04          	mov    %esi,0x4(%esp)
  80042c:	c7 04 24 80 e5 b3 00 	movl   $0xb3e580,(%esp)
  800433:	e8 49 dc 00 00       	call   80e081 <jif_input>
  800438:	bb 00 00 00 00       	mov    $0x0,%ebx
  80043d:	eb 4c                	jmp    80048b <serve_thread+0x1a1>
		r = 0;
		break;
	default:
		cprintf("Invalid request code %d from %08x\n", args->whom, args->req);
  80043f:	89 74 24 08          	mov    %esi,0x8(%esp)
  800443:	8b 47 04             	mov    0x4(%edi),%eax
  800446:	89 44 24 04          	mov    %eax,0x4(%esp)
  80044a:	c7 04 24 c8 21 81 00 	movl   $0x8121c8,(%esp)
  800451:	e8 23 05 00 00       	call   800979 <cprintf>
  800456:	bb fd ff ff ff       	mov    $0xfffffffd,%ebx
  80045b:	eb 2e                	jmp    80048b <serve_thread+0x1a1>
		r = -E_INVAL;
		break;
	}

	if (r == -1) {
  80045d:	83 fb ff             	cmp    $0xffffffff,%ebx
  800460:	75 29                	jne    80048b <serve_thread+0x1a1>
		char buf[100];
		snprintf(buf, sizeof buf, "ns req type %d", args->reqno);
  800462:	8b 07                	mov    (%edi),%eax
  800464:	89 44 24 0c          	mov    %eax,0xc(%esp)
  800468:	c7 44 24 08 c2 20 81 	movl   $0x8120c2,0x8(%esp)
  80046f:	00 
  800470:	c7 44 24 04 64 00 00 	movl   $0x64,0x4(%esp)
  800477:	00 
  800478:	8d 75 90             	lea    -0x70(%ebp),%esi
  80047b:	89 34 24             	mov    %esi,(%esp)
  80047e:	e8 b7 0a 00 00       	call   800f3a <snprintf>
		perror(buf);
  800483:	89 34 24             	mov    %esi,(%esp)
  800486:	e8 bc d9 00 00       	call   80de47 <perror>
	}

	if (args->reqno != NSREQ_INPUT)
  80048b:	83 3f 0a             	cmpl   $0xa,(%edi)
  80048e:	74 1f                	je     8004af <serve_thread+0x1c5>
		ipc_send(args->whom, r, 0, 0);
  800490:	c7 44 24 0c 00 00 00 	movl   $0x0,0xc(%esp)
  800497:	00 
  800498:	c7 44 24 08 00 00 00 	movl   $0x0,0x8(%esp)
  80049f:	00 
  8004a0:	89 5c 24 04          	mov    %ebx,0x4(%esp)
  8004a4:	8b 47 04             	mov    0x4(%edi),%eax
  8004a7:	89 04 24             	mov    %eax,(%esp)
  8004aa:	e8 e1 18 00 00       	call   801d90 <ipc_send>

	put_buffer(args->req);
  8004af:	8b 47 08             	mov    0x8(%edi),%eax
  8004b2:	e8 89 fb ff ff       	call   800040 <put_buffer>
	sys_page_unmap(0, (void*) args->req);
  8004b7:	8b 47 08             	mov    0x8(%edi),%eax
  8004ba:	89 44 24 04          	mov    %eax,0x4(%esp)
  8004be:	c7 04 24 00 00 00 00 	movl   $0x0,(%esp)
  8004c5:	e8 94 11 00 00       	call   80165e <sys_page_unmap>
	free(args);
  8004ca:	89 3c 24             	mov    %edi,(%esp)
  8004cd:	e8 0e 28 00 00       	call   802ce0 <free>
}
  8004d2:	8b 5d f4             	mov    -0xc(%ebp),%ebx
  8004d5:	8b 75 f8             	mov    -0x8(%ebp),%esi
  8004d8:	8b 7d fc             	mov    -0x4(%ebp),%edi
  8004db:	89 ec                	mov    %ebp,%esp
  8004dd:	5d                   	pop    %ebp
  8004de:	c3                   	ret    

008004df <net_timer>:
	netif_set_up(nif);
}

static void __attribute__((noreturn))
net_timer(uint32_t arg)
{
  8004df:	55                   	push   %ebp
  8004e0:	89 e5                	mov    %esp,%ebp
  8004e2:	56                   	push   %esi
  8004e3:	53                   	push   %ebx
  8004e4:	83 ec 10             	sub    $0x10,%esp
	struct timer_thread *t = (struct timer_thread *) arg;
  8004e7:	8b 75 08             	mov    0x8(%ebp),%esi

	for (;;) {
		uint32_t cur = sys_time_msec();
  8004ea:	e8 8c 0f 00 00       	call   80147b <sys_time_msec>
  8004ef:	89 c3                	mov    %eax,%ebx

		lwip_core_lock();
  8004f1:	e8 80 cc 00 00       	call   80d176 <lwip_core_lock>
		t->func();
  8004f6:	ff 56 04             	call   *0x4(%esi)
		lwip_core_unlock();
  8004f9:	e8 7d cc 00 00       	call   80d17b <lwip_core_unlock>

		thread_wait(0, 0, cur + t->msec);
  8004fe:	89 d8                	mov    %ebx,%eax
  800500:	03 06                	add    (%esi),%eax
  800502:	89 44 24 08          	mov    %eax,0x8(%esp)
  800506:	c7 44 24 04 00 00 00 	movl   $0x0,0x4(%esp)
  80050d:	00 
  80050e:	c7 04 24 00 00 00 00 	movl   $0x0,(%esp)
  800515:	e8 64 d8 00 00       	call   80dd7e <thread_wait>
  80051a:	eb ce                	jmp    8004ea <net_timer+0xb>

0080051c <start_timer>:
	}
}

static void
start_timer(struct timer_thread *t, void (*func)(void), const char *name, int msec)
{
  80051c:	55                   	push   %ebp
  80051d:	89 e5                	mov    %esp,%ebp
  80051f:	53                   	push   %ebx
  800520:	83 ec 14             	sub    $0x14,%esp
	t->msec = msec;
  800523:	8b 5d 08             	mov    0x8(%ebp),%ebx
  800526:	89 18                	mov    %ebx,(%eax)
	t->func = func;
  800528:	89 50 04             	mov    %edx,0x4(%eax)
	t->name = name;
  80052b:	89 48 08             	mov    %ecx,0x8(%eax)
	int r = thread_create(0, name, &net_timer, (uint32_t)t);
  80052e:	89 44 24 0c          	mov    %eax,0xc(%esp)
  800532:	c7 44 24 08 df 04 80 	movl   $0x8004df,0x8(%esp)
  800539:	00 
  80053a:	89 4c 24 04          	mov    %ecx,0x4(%esp)
  80053e:	c7 04 24 00 00 00 00 	movl   $0x0,(%esp)
  800545:	e8 ea d6 00 00       	call   80dc34 <thread_create>
	if (r < 0)
  80054a:	85 c0                	test   %eax,%eax
  80054c:	79 28                	jns    800576 <start_timer+0x5a>
		panic("cannot create timer thread: %s", e2s(r));
  80054e:	89 04 24             	mov    %eax,(%esp)
  800551:	e8 e2 d8 00 00       	call   80de38 <e2s>
  800556:	89 44 24 0c          	mov    %eax,0xc(%esp)
  80055a:	c7 44 24 08 ec 21 81 	movl   $0x8121ec,0x8(%esp)
  800561:	00 
  800562:	c7 44 24 04 7a 00 00 	movl   $0x7a,0x4(%esp)
  800569:	00 
  80056a:	c7 04 24 91 20 81 00 	movl   $0x812091,(%esp)
  800571:	e8 36 03 00 00       	call   8008ac <_panic>
}
  800576:	83 c4 14             	add    $0x14,%esp
  800579:	5b                   	pop    %ebx
  80057a:	5d                   	pop    %ebp
  80057b:	c3                   	ret    

0080057c <serve_init>:
	thread_wakeup(done);
}

void
serve_init(uint32_t ipaddr, uint32_t netmask, uint32_t gw)
{
  80057c:	55                   	push   %ebp
  80057d:	89 e5                	mov    %esp,%ebp
  80057f:	57                   	push   %edi
  800580:	56                   	push   %esi
  800581:	53                   	push   %ebx
  800582:	83 ec 3c             	sub    $0x3c,%esp
  800585:	8b 75 08             	mov    0x8(%ebp),%esi
	int r;
	lwip_core_lock();
  800588:	e8 e9 cb 00 00       	call   80d176 <lwip_core_lock>

	uint32_t done = 0;
  80058d:	c7 45 f0 00 00 00 00 	movl   $0x0,-0x10(%ebp)
	tcpip_init(&tcpip_init_done, &done);
  800594:	8d 5d f0             	lea    -0x10(%ebp),%ebx
  800597:	89 5c 24 04          	mov    %ebx,0x4(%esp)
  80059b:	c7 04 24 60 07 80 00 	movl   $0x800760,(%esp)
  8005a2:	e8 2c 45 00 00       	call   804ad3 <tcpip_init>
	lwip_core_unlock();
  8005a7:	e8 cf cb 00 00       	call   80d17b <lwip_core_unlock>
	thread_wait(&done, 0, (uint32_t)~0);
  8005ac:	c7 44 24 08 ff ff ff 	movl   $0xffffffff,0x8(%esp)
  8005b3:	ff 
  8005b4:	c7 44 24 04 00 00 00 	movl   $0x0,0x4(%esp)
  8005bb:	00 
  8005bc:	89 1c 24             	mov    %ebx,(%esp)
  8005bf:	e8 ba d7 00 00       	call   80dd7e <thread_wait>
	lwip_core_lock();
  8005c4:	e8 ad cb 00 00       	call   80d176 <lwip_core_lock>
static void
lwip_init(struct netif *nif, void *if_state,
	  uint32_t init_addr, uint32_t init_mask, uint32_t init_gw)
{
	struct ip_addr ipaddr, netmask, gateway;
	ipaddr.addr  = init_addr;
  8005c9:	89 75 ec             	mov    %esi,-0x14(%ebp)
	netmask.addr = init_mask;
  8005cc:	8b 45 0c             	mov    0xc(%ebp),%eax
  8005cf:	89 45 e8             	mov    %eax,-0x18(%ebp)
	gateway.addr = init_gw;
  8005d2:	8b 45 10             	mov    0x10(%ebp),%eax
  8005d5:	89 45 e4             	mov    %eax,-0x1c(%ebp)

	if (0 == netif_add(nif, &ipaddr, &netmask, &gateway,
  8005d8:	c7 44 24 18 6e 97 80 	movl   $0x80976e,0x18(%esp)
  8005df:	00 
  8005e0:	c7 44 24 14 80 de 80 	movl   $0x80de80,0x14(%esp)
  8005e7:	00 
  8005e8:	c7 44 24 10 6c 83 81 	movl   $0x81836c,0x10(%esp)
  8005ef:	00 
  8005f0:	8d 45 e4             	lea    -0x1c(%ebp),%eax
  8005f3:	89 44 24 0c          	mov    %eax,0xc(%esp)
  8005f7:	8d 45 e8             	lea    -0x18(%ebp),%eax
  8005fa:	89 44 24 08          	mov    %eax,0x8(%esp)
  8005fe:	8d 45 ec             	lea    -0x14(%ebp),%eax
  800601:	89 44 24 04          	mov    %eax,0x4(%esp)
  800605:	c7 04 24 80 e5 b3 00 	movl   $0xb3e580,(%esp)
  80060c:	e8 8c 6f 00 00       	call   80759d <netif_add>
  800611:	85 c0                	test   %eax,%eax
  800613:	75 1c                	jne    800631 <serve_init+0xb5>
			   if_state,
			   jif_init,
			   ip_input))
		panic("lwip_init: error in netif_add\n");
  800615:	c7 44 24 08 0c 22 81 	movl   $0x81220c,0x8(%esp)
  80061c:	00 
  80061d:	c7 44 24 04 5c 00 00 	movl   $0x5c,0x4(%esp)
  800624:	00 
  800625:	c7 04 24 91 20 81 00 	movl   $0x812091,(%esp)
  80062c:	e8 7b 02 00 00       	call   8008ac <_panic>

	netif_set_default(nif);
  800631:	c7 04 24 80 e5 b3 00 	movl   $0xb3e580,(%esp)
  800638:	e8 e7 6d 00 00       	call   807424 <netif_set_default>
	netif_set_up(nif);
  80063d:	c7 04 24 80 e5 b3 00 	movl   $0xb3e580,(%esp)
  800644:	e8 64 6e 00 00       	call   8074ad <netif_set_up>
	thread_wait(&done, 0, (uint32_t)~0);
	lwip_core_lock();

	lwip_init(&nif, &output_envid, ipaddr, netmask, gw);

	start_timer(&t_arp, &etharp_tmr, "arp timer", ARP_TMR_INTERVAL);
  800649:	c7 04 24 88 13 00 00 	movl   $0x1388,(%esp)
  800650:	b9 d1 20 81 00       	mov    $0x8120d1,%ecx
  800655:	ba ca cd 80 00       	mov    $0x80cdca,%edx
  80065a:	b8 40 83 81 00       	mov    $0x818340,%eax
  80065f:	e8 b8 fe ff ff       	call   80051c <start_timer>
	start_timer(&t_tcpf, &tcp_fasttmr, "tcp f timer", TCP_FAST_INTERVAL);
  800664:	c7 04 24 fa 00 00 00 	movl   $0xfa,(%esp)
  80066b:	b9 db 20 81 00       	mov    $0x8120db,%ecx
  800670:	ba 38 85 80 00       	mov    $0x808538,%edx
  800675:	b8 4c 83 81 00       	mov    $0x81834c,%eax
  80067a:	e8 9d fe ff ff       	call   80051c <start_timer>
	start_timer(&t_tcps, &tcp_slowtmr, "tcp s timer", TCP_SLOW_INTERVAL);
  80067f:	c7 04 24 f4 01 00 00 	movl   $0x1f4,(%esp)
  800686:	b9 e7 20 81 00       	mov    $0x8120e7,%ecx
  80068b:	ba 6d 8e 80 00       	mov    $0x808e6d,%edx
  800690:	b8 58 83 81 00       	mov    $0x818358,%eax
  800695:	e8 82 fe ff ff       	call   80051c <start_timer>

	struct in_addr ia = {ipaddr};
	cprintf("ns: %02x:%02x:%02x:%02x:%02x:%02x" 
  80069a:	89 34 24             	mov    %esi,(%esp)
  80069d:	e8 3e a1 00 00       	call   80a7e0 <inet_ntoa>
  8006a2:	89 44 24 1c          	mov    %eax,0x1c(%esp)
  8006a6:	0f b6 15 aa e5 b3 00 	movzbl 0xb3e5aa,%edx
  8006ad:	0f b6 0d a9 e5 b3 00 	movzbl 0xb3e5a9,%ecx
  8006b4:	0f b6 1d a8 e5 b3 00 	movzbl 0xb3e5a8,%ebx
  8006bb:	0f b6 35 a7 e5 b3 00 	movzbl 0xb3e5a7,%esi
  8006c2:	0f b6 3d a6 e5 b3 00 	movzbl 0xb3e5a6,%edi
  8006c9:	0f b6 05 a5 e5 b3 00 	movzbl 0xb3e5a5,%eax
  8006d0:	89 44 24 04          	mov    %eax,0x4(%esp)
  8006d4:	89 54 24 18          	mov    %edx,0x18(%esp)
  8006d8:	89 4c 24 14          	mov    %ecx,0x14(%esp)
  8006dc:	89 5c 24 10          	mov    %ebx,0x10(%esp)
  8006e0:	89 74 24 0c          	mov    %esi,0xc(%esp)
  8006e4:	89 7c 24 08          	mov    %edi,0x8(%esp)
  8006e8:	c7 04 24 2c 22 81 00 	movl   $0x81222c,(%esp)
  8006ef:	e8 85 02 00 00       	call   800979 <cprintf>
		" bound to static IP %s\n", 
		nif.hwaddr[0], nif.hwaddr[1], nif.hwaddr[2],
		nif.hwaddr[3], nif.hwaddr[4], nif.hwaddr[5],
		inet_ntoa(ia));

	lwip_core_unlock();
  8006f4:	e8 82 ca 00 00       	call   80d17b <lwip_core_unlock>

	cprintf("NS: TCP/IP initialized.\n");
  8006f9:	c7 04 24 f3 20 81 00 	movl   $0x8120f3,(%esp)
  800700:	e8 74 02 00 00       	call   800979 <cprintf>
}
  800705:	83 c4 3c             	add    $0x3c,%esp
  800708:	5b                   	pop    %ebx
  800709:	5e                   	pop    %esi
  80070a:	5f                   	pop    %edi
  80070b:	5d                   	pop    %ebp
  80070c:	c3                   	ret    

0080070d <tmain>:
		thread_yield(); // let the thread created run
	}
}

static void
tmain(uint32_t arg) {
  80070d:	55                   	push   %ebp
  80070e:	89 e5                	mov    %esp,%ebp
  800710:	83 ec 18             	sub    $0x18,%esp
  800713:	89 5d f8             	mov    %ebx,-0x8(%ebp)
  800716:	89 75 fc             	mov    %esi,-0x4(%ebp)
	serve_init(inet_addr(IP),
  800719:	c7 04 24 0c 21 81 00 	movl   $0x81210c,(%esp)
  800720:	e8 a9 a3 00 00       	call   80aace <inet_addr>
  800725:	89 c6                	mov    %eax,%esi
  800727:	c7 04 24 15 21 81 00 	movl   $0x812115,(%esp)
  80072e:	e8 9b a3 00 00       	call   80aace <inet_addr>
  800733:	89 c3                	mov    %eax,%ebx
  800735:	c7 04 24 23 21 81 00 	movl   $0x812123,(%esp)
  80073c:	e8 8d a3 00 00       	call   80aace <inet_addr>
  800741:	89 74 24 08          	mov    %esi,0x8(%esp)
  800745:	89 5c 24 04          	mov    %ebx,0x4(%esp)
  800749:	89 04 24             	mov    %eax,(%esp)
  80074c:	e8 2b fe ff ff       	call   80057c <serve_init>
		   inet_addr(MASK),
		   inet_addr(DEFAULT));
	serve();
  800751:	e8 06 fa ff ff       	call   80015c <serve>
}
  800756:	8b 5d f8             	mov    -0x8(%ebp),%ebx
  800759:	8b 75 fc             	mov    -0x4(%ebp),%esi
  80075c:	89 ec                	mov    %ebp,%esp
  80075e:	5d                   	pop    %ebp
  80075f:	c3                   	ret    

00800760 <tcpip_init_done>:
		panic("cannot create timer thread: %s", e2s(r));
}

static void
tcpip_init_done(void *arg)
{
  800760:	55                   	push   %ebp
  800761:	89 e5                	mov    %esp,%ebp
  800763:	83 ec 08             	sub    $0x8,%esp
  800766:	8b 45 08             	mov    0x8(%ebp),%eax
	uint32_t *done = arg;
	*done = 1;
  800769:	c7 00 01 00 00 00    	movl   $0x1,(%eax)
	thread_wakeup(done);
  80076f:	89 04 24             	mov    %eax,(%esp)
  800772:	e8 08 d3 00 00       	call   80da7f <thread_wakeup>
}
  800777:	c9                   	leave  
  800778:	c3                   	ret    
  800779:	00 00                	add    %al,(%eax)
  80077b:	00 00                	add    %al,(%eax)
  80077d:	00 00                	add    %al,(%eax)
	...

00800780 <timer>:
#include "ns.h"

void
timer(envid_t ns_envid, uint32_t initial_to) {
  800780:	55                   	push   %ebp
  800781:	89 e5                	mov    %esp,%ebp
  800783:	57                   	push   %edi
  800784:	56                   	push   %esi
  800785:	53                   	push   %ebx
  800786:	83 ec 2c             	sub    $0x2c,%esp
  800789:	8b 7d 08             	mov    0x8(%ebp),%edi
	uint32_t stop = sys_time_msec() + initial_to;
  80078c:	e8 ea 0c 00 00       	call   80147b <sys_time_msec>
  800791:	89 c3                	mov    %eax,%ebx
  800793:	03 5d 0c             	add    0xc(%ebp),%ebx

	binaryname = "ns_timer";
  800796:	c7 05 00 80 81 00 94 	movl   $0x812294,0x818000
  80079d:	22 81 00 

		ipc_send(ns_envid, NSREQ_TIMER, 0, 0);

		while (1) {
			uint32_t to, whom;
			to = ipc_recv((int32_t *) &whom, 0, 0);
  8007a0:	8d 75 f0             	lea    -0x10(%ebp),%esi
  8007a3:	eb 05                	jmp    8007aa <timer+0x2a>

	binaryname = "ns_timer";

	while (1) {
		while(sys_time_msec() < stop) {
			sys_yield();
  8007a5:	e8 cf 0f 00 00       	call   801779 <sys_yield>
	uint32_t stop = sys_time_msec() + initial_to;

	binaryname = "ns_timer";

	while (1) {
		while(sys_time_msec() < stop) {
  8007aa:	e8 cc 0c 00 00       	call   80147b <sys_time_msec>
  8007af:	39 c3                	cmp    %eax,%ebx
  8007b1:	77 f2                	ja     8007a5 <timer+0x25>
			sys_yield();
		}

		ipc_send(ns_envid, NSREQ_TIMER, 0, 0);
  8007b3:	c7 44 24 0c 00 00 00 	movl   $0x0,0xc(%esp)
  8007ba:	00 
  8007bb:	c7 44 24 08 00 00 00 	movl   $0x0,0x8(%esp)
  8007c2:	00 
  8007c3:	c7 44 24 04 0c 00 00 	movl   $0xc,0x4(%esp)
  8007ca:	00 
  8007cb:	89 3c 24             	mov    %edi,(%esp)
  8007ce:	e8 bd 15 00 00       	call   801d90 <ipc_send>

		while (1) {
			uint32_t to, whom;
			to = ipc_recv((int32_t *) &whom, 0, 0);
  8007d3:	c7 44 24 08 00 00 00 	movl   $0x0,0x8(%esp)
  8007da:	00 
  8007db:	c7 44 24 04 00 00 00 	movl   $0x0,0x4(%esp)
  8007e2:	00 
  8007e3:	89 34 24             	mov    %esi,(%esp)
  8007e6:	e8 59 16 00 00       	call   801e44 <ipc_recv>
  8007eb:	89 c3                	mov    %eax,%ebx

			if (whom != ns_envid) {
  8007ed:	8b 45 f0             	mov    -0x10(%ebp),%eax
  8007f0:	39 c7                	cmp    %eax,%edi
  8007f2:	74 12                	je     800806 <timer+0x86>
				cprintf("NS TIMER: timer thread got IPC message from env %x not NS\n", whom);
  8007f4:	89 44 24 04          	mov    %eax,0x4(%esp)
  8007f8:	c7 04 24 a0 22 81 00 	movl   $0x8122a0,(%esp)
  8007ff:	e8 75 01 00 00       	call   800979 <cprintf>
  800804:	eb cd                	jmp    8007d3 <timer+0x53>
				continue;
			}

			stop = sys_time_msec() + to;
  800806:	e8 70 0c 00 00       	call   80147b <sys_time_msec>
  80080b:	01 c3                	add    %eax,%ebx
  80080d:	8d 76 00             	lea    0x0(%esi),%esi
  800810:	eb 98                	jmp    8007aa <timer+0x2a>
	...

00800814 <input>:

extern union Nsipc nsipcbuf;

void
input(envid_t ns_envid)
{
  800814:	55                   	push   %ebp
  800815:	89 e5                	mov    %esp,%ebp
	binaryname = "ns_input";
  800817:	c7 05 00 80 81 00 db 	movl   $0x8122db,0x818000
  80081e:	22 81 00 
	// 	- read a packet from the device driver
	//	- send it to the network server
	// Hint: When you IPC a page to the network server, it will be
	// reading from it for a while, so don't immediately receive
	// another packet in to the same physical page.
}
  800821:	5d                   	pop    %ebp
  800822:	c3                   	ret    
	...

00800824 <output>:

extern union Nsipc nsipcbuf;

void
output(envid_t ns_envid)
{
  800824:	55                   	push   %ebp
  800825:	89 e5                	mov    %esp,%ebp
	binaryname = "ns_output";
  800827:	c7 05 00 80 81 00 e4 	movl   $0x8122e4,0x818000
  80082e:	22 81 00 

	// LAB 6: Your code here:
	// 	- read a packet from the network server
	//	- send the packet to the device driver
}
  800831:	5d                   	pop    %ebp
  800832:	c3                   	ret    
	...

00800834 <libmain>:
volatile struct Env *env;
char *binaryname = "(PROGRAM NAME UNKNOWN)";

void
libmain(int argc, char **argv)
{
  800834:	55                   	push   %ebp
  800835:	89 e5                	mov    %esp,%ebp
  800837:	83 ec 18             	sub    $0x18,%esp
  80083a:	89 5d f8             	mov    %ebx,-0x8(%ebp)
  80083d:	89 75 fc             	mov    %esi,-0x4(%ebp)
  800840:	8b 75 08             	mov    0x8(%ebp),%esi
  800843:	8b 5d 0c             	mov    0xc(%ebp),%ebx
	// set env to point at our env structure in envs[].
	// LAB 3: Your code here.
	env = 0;
  800846:	c7 05 b4 e5 b3 00 00 	movl   $0x0,0xb3e5b4
  80084d:	00 00 00 
	env = &envs[ENVX(sys_getenvid())];
  800850:	e8 58 0f 00 00       	call   8017ad <sys_getenvid>
  800855:	25 ff 03 00 00       	and    $0x3ff,%eax
  80085a:	6b c0 7c             	imul   $0x7c,%eax,%eax
  80085d:	05 00 00 c0 ee       	add    $0xeec00000,%eax
  800862:	a3 b4 e5 b3 00       	mov    %eax,0xb3e5b4
	// save the name of the program so that panic() can use it
	if (argc > 0)
  800867:	85 f6                	test   %esi,%esi
  800869:	7e 07                	jle    800872 <libmain+0x3e>
		binaryname = argv[0];
  80086b:	8b 03                	mov    (%ebx),%eax
  80086d:	a3 00 80 81 00       	mov    %eax,0x818000

	// call user main routine
	umain(argc, argv);
  800872:	89 5c 24 04          	mov    %ebx,0x4(%esp)
  800876:	89 34 24             	mov    %esi,(%esp)
  800879:	e8 da f7 ff ff       	call   800058 <umain>

	// exit gracefully
	exit();
  80087e:	e8 0d 00 00 00       	call   800890 <exit>
}
  800883:	8b 5d f8             	mov    -0x8(%ebp),%ebx
  800886:	8b 75 fc             	mov    -0x4(%ebp),%esi
  800889:	89 ec                	mov    %ebp,%esp
  80088b:	5d                   	pop    %ebp
  80088c:	c3                   	ret    
  80088d:	00 00                	add    %al,(%eax)
	...

00800890 <exit>:

#include <inc/lib.h>

void
exit(void)
{
  800890:	55                   	push   %ebp
  800891:	89 e5                	mov    %esp,%ebp
  800893:	83 ec 08             	sub    $0x8,%esp
	close_all();
  800896:	e8 85 1c 00 00       	call   802520 <close_all>
	sys_env_destroy(0);
  80089b:	c7 04 24 00 00 00 00 	movl   $0x0,(%esp)
  8008a2:	e8 3a 0f 00 00       	call   8017e1 <sys_env_destroy>
}
  8008a7:	c9                   	leave  
  8008a8:	c3                   	ret    
  8008a9:	00 00                	add    %al,(%eax)
	...

008008ac <_panic>:
 * It prints "panic: <message>", then causes a breakpoint exception,
 * which causes JOS to enter the JOS kernel monitor.
 */
void
_panic(const char *file, int line, const char *fmt,...)
{
  8008ac:	55                   	push   %ebp
  8008ad:	89 e5                	mov    %esp,%ebp
  8008af:	83 ec 28             	sub    $0x28,%esp
	va_list ap;

	va_start(ap, fmt);
  8008b2:	8d 45 14             	lea    0x14(%ebp),%eax
  8008b5:	89 45 fc             	mov    %eax,-0x4(%ebp)

	// Print the panic message
	if (argv0)
  8008b8:	a1 b8 e5 b3 00       	mov    0xb3e5b8,%eax
  8008bd:	85 c0                	test   %eax,%eax
  8008bf:	74 10                	je     8008d1 <_panic+0x25>
		cprintf("%s: ", argv0);
  8008c1:	89 44 24 04          	mov    %eax,0x4(%esp)
  8008c5:	c7 04 24 05 23 81 00 	movl   $0x812305,(%esp)
  8008cc:	e8 a8 00 00 00       	call   800979 <cprintf>
	cprintf("user panic in %s at %s:%d: ", binaryname, file, line);
  8008d1:	8b 45 0c             	mov    0xc(%ebp),%eax
  8008d4:	89 44 24 0c          	mov    %eax,0xc(%esp)
  8008d8:	8b 45 08             	mov    0x8(%ebp),%eax
  8008db:	89 44 24 08          	mov    %eax,0x8(%esp)
  8008df:	a1 00 80 81 00       	mov    0x818000,%eax
  8008e4:	89 44 24 04          	mov    %eax,0x4(%esp)
  8008e8:	c7 04 24 0a 23 81 00 	movl   $0x81230a,(%esp)
  8008ef:	e8 85 00 00 00       	call   800979 <cprintf>
	vcprintf(fmt, ap);
  8008f4:	8b 45 fc             	mov    -0x4(%ebp),%eax
  8008f7:	89 44 24 04          	mov    %eax,0x4(%esp)
  8008fb:	8b 45 10             	mov    0x10(%ebp),%eax
  8008fe:	89 04 24             	mov    %eax,(%esp)
  800901:	e8 12 00 00 00       	call   800918 <vcprintf>
	cprintf("\n");
  800906:	c7 04 24 0a 21 81 00 	movl   $0x81210a,(%esp)
  80090d:	e8 67 00 00 00       	call   800979 <cprintf>

	// Cause a breakpoint exception
	while (1)
		asm volatile("int3");
  800912:	cc                   	int3   
  800913:	eb fd                	jmp    800912 <_panic+0x66>
  800915:	00 00                	add    %al,(%eax)
	...

00800918 <vcprintf>:
	b->cnt++;
}

int
vcprintf(const char *fmt, va_list ap)
{
  800918:	55                   	push   %ebp
  800919:	89 e5                	mov    %esp,%ebp
  80091b:	81 ec 28 01 00 00    	sub    $0x128,%esp
	struct printbuf b;

	b.idx = 0;
  800921:	c7 85 f8 fe ff ff 00 	movl   $0x0,-0x108(%ebp)
  800928:	00 00 00 
	b.cnt = 0;
  80092b:	c7 85 fc fe ff ff 00 	movl   $0x0,-0x104(%ebp)
  800932:	00 00 00 
	vprintfmt((void*)putch, &b, fmt, ap);
  800935:	8b 45 0c             	mov    0xc(%ebp),%eax
  800938:	89 44 24 0c          	mov    %eax,0xc(%esp)
  80093c:	8b 45 08             	mov    0x8(%ebp),%eax
  80093f:	89 44 24 08          	mov    %eax,0x8(%esp)
  800943:	8d 85 f8 fe ff ff    	lea    -0x108(%ebp),%eax
  800949:	89 44 24 04          	mov    %eax,0x4(%esp)
  80094d:	c7 04 24 96 09 80 00 	movl   $0x800996,(%esp)
  800954:	e8 cc 01 00 00       	call   800b25 <vprintfmt>
	sys_cputs(b.buf, b.idx);
  800959:	8b 85 f8 fe ff ff    	mov    -0x108(%ebp),%eax
  80095f:	89 44 24 04          	mov    %eax,0x4(%esp)
  800963:	8d 85 00 ff ff ff    	lea    -0x100(%ebp),%eax
  800969:	89 04 24             	mov    %eax,(%esp)
  80096c:	e8 d7 0a 00 00       	call   801448 <sys_cputs>
  800971:	8b 85 fc fe ff ff    	mov    -0x104(%ebp),%eax

	return b.cnt;
}
  800977:	c9                   	leave  
  800978:	c3                   	ret    

00800979 <cprintf>:

int
cprintf(const char *fmt, ...)
{
  800979:	55                   	push   %ebp
  80097a:	89 e5                	mov    %esp,%ebp
  80097c:	83 ec 18             	sub    $0x18,%esp
	va_list ap;
	int cnt;

	va_start(ap, fmt);
  80097f:	8d 45 0c             	lea    0xc(%ebp),%eax
  800982:	89 45 fc             	mov    %eax,-0x4(%ebp)
	cnt = vcprintf(fmt, ap);
  800985:	89 44 24 04          	mov    %eax,0x4(%esp)
  800989:	8b 45 08             	mov    0x8(%ebp),%eax
  80098c:	89 04 24             	mov    %eax,(%esp)
  80098f:	e8 84 ff ff ff       	call   800918 <vcprintf>
	va_end(ap);

	return cnt;
}
  800994:	c9                   	leave  
  800995:	c3                   	ret    

00800996 <putch>:
};


static void
putch(int ch, struct printbuf *b)
{
  800996:	55                   	push   %ebp
  800997:	89 e5                	mov    %esp,%ebp
  800999:	53                   	push   %ebx
  80099a:	83 ec 14             	sub    $0x14,%esp
  80099d:	8b 5d 0c             	mov    0xc(%ebp),%ebx
	b->buf[b->idx++] = ch;
  8009a0:	8b 03                	mov    (%ebx),%eax
  8009a2:	8b 55 08             	mov    0x8(%ebp),%edx
  8009a5:	88 54 03 08          	mov    %dl,0x8(%ebx,%eax,1)
  8009a9:	83 c0 01             	add    $0x1,%eax
  8009ac:	89 03                	mov    %eax,(%ebx)
	if (b->idx == 256-1) {
  8009ae:	3d ff 00 00 00       	cmp    $0xff,%eax
  8009b3:	75 19                	jne    8009ce <putch+0x38>
		sys_cputs(b->buf, b->idx);
  8009b5:	c7 44 24 04 ff 00 00 	movl   $0xff,0x4(%esp)
  8009bc:	00 
  8009bd:	8d 43 08             	lea    0x8(%ebx),%eax
  8009c0:	89 04 24             	mov    %eax,(%esp)
  8009c3:	e8 80 0a 00 00       	call   801448 <sys_cputs>
		b->idx = 0;
  8009c8:	c7 03 00 00 00 00    	movl   $0x0,(%ebx)
	}
	b->cnt++;
  8009ce:	83 43 04 01          	addl   $0x1,0x4(%ebx)
}
  8009d2:	83 c4 14             	add    $0x14,%esp
  8009d5:	5b                   	pop    %ebx
  8009d6:	5d                   	pop    %ebp
  8009d7:	c3                   	ret    
	...

008009e0 <printnum>:
 * using specified putch function and associated pointer putdat.
 */
static void
printnum(void (*putch)(int, void*), void *putdat,
	 unsigned long long num, unsigned base, int width, int padc)
{
  8009e0:	55                   	push   %ebp
  8009e1:	89 e5                	mov    %esp,%ebp
  8009e3:	57                   	push   %edi
  8009e4:	56                   	push   %esi
  8009e5:	53                   	push   %ebx
  8009e6:	83 ec 3c             	sub    $0x3c,%esp
  8009e9:	89 45 e4             	mov    %eax,-0x1c(%ebp)
  8009ec:	89 d7                	mov    %edx,%edi
  8009ee:	8b 45 08             	mov    0x8(%ebp),%eax
  8009f1:	8b 55 0c             	mov    0xc(%ebp),%edx
  8009f4:	89 45 d8             	mov    %eax,-0x28(%ebp)
  8009f7:	89 55 dc             	mov    %edx,-0x24(%ebp)
  8009fa:	8b 55 10             	mov    0x10(%ebp),%edx
  8009fd:	8b 75 18             	mov    0x18(%ebp),%esi
	// first recursively print all preceding (more significant) digits
	if (num >= base) {
  800a00:	89 55 e8             	mov    %edx,-0x18(%ebp)
  800a03:	c7 45 ec 00 00 00 00 	movl   $0x0,-0x14(%ebp)
  800a0a:	8b 45 dc             	mov    -0x24(%ebp),%eax
  800a0d:	39 45 ec             	cmp    %eax,-0x14(%ebp)
  800a10:	72 14                	jb     800a26 <printnum+0x46>
  800a12:	8b 45 d8             	mov    -0x28(%ebp),%eax
  800a15:	39 45 e8             	cmp    %eax,-0x18(%ebp)
  800a18:	76 0c                	jbe    800a26 <printnum+0x46>
		printnum(putch, putdat, num / base, base, width - 1, padc);
	} else {
		// print any needed pad characters before first digit
		while (--width > 0)
  800a1a:	8b 5d 14             	mov    0x14(%ebp),%ebx
  800a1d:	83 eb 01             	sub    $0x1,%ebx
  800a20:	85 db                	test   %ebx,%ebx
  800a22:	7f 57                	jg     800a7b <printnum+0x9b>
  800a24:	eb 64                	jmp    800a8a <printnum+0xaa>
printnum(void (*putch)(int, void*), void *putdat,
	 unsigned long long num, unsigned base, int width, int padc)
{
	// first recursively print all preceding (more significant) digits
	if (num >= base) {
		printnum(putch, putdat, num / base, base, width - 1, padc);
  800a26:	89 74 24 10          	mov    %esi,0x10(%esp)
  800a2a:	8b 45 14             	mov    0x14(%ebp),%eax
  800a2d:	83 e8 01             	sub    $0x1,%eax
  800a30:	89 44 24 0c          	mov    %eax,0xc(%esp)
  800a34:	89 54 24 08          	mov    %edx,0x8(%esp)
  800a38:	8b 5c 24 08          	mov    0x8(%esp),%ebx
  800a3c:	8b 74 24 0c          	mov    0xc(%esp),%esi
  800a40:	8b 45 e8             	mov    -0x18(%ebp),%eax
  800a43:	8b 55 ec             	mov    -0x14(%ebp),%edx
  800a46:	89 44 24 08          	mov    %eax,0x8(%esp)
  800a4a:	89 54 24 0c          	mov    %edx,0xc(%esp)
  800a4e:	8b 45 d8             	mov    -0x28(%ebp),%eax
  800a51:	8b 55 dc             	mov    -0x24(%ebp),%edx
  800a54:	89 04 24             	mov    %eax,(%esp)
  800a57:	89 54 24 04          	mov    %edx,0x4(%esp)
  800a5b:	e8 80 13 01 00       	call   811de0 <__udivdi3>
  800a60:	89 5c 24 08          	mov    %ebx,0x8(%esp)
  800a64:	89 74 24 0c          	mov    %esi,0xc(%esp)
  800a68:	89 04 24             	mov    %eax,(%esp)
  800a6b:	89 54 24 04          	mov    %edx,0x4(%esp)
  800a6f:	89 fa                	mov    %edi,%edx
  800a71:	8b 45 e4             	mov    -0x1c(%ebp),%eax
  800a74:	e8 67 ff ff ff       	call   8009e0 <printnum>
  800a79:	eb 0f                	jmp    800a8a <printnum+0xaa>
	} else {
		// print any needed pad characters before first digit
		while (--width > 0)
			putch(padc, putdat);
  800a7b:	89 7c 24 04          	mov    %edi,0x4(%esp)
  800a7f:	89 34 24             	mov    %esi,(%esp)
  800a82:	ff 55 e4             	call   *-0x1c(%ebp)
	// first recursively print all preceding (more significant) digits
	if (num >= base) {
		printnum(putch, putdat, num / base, base, width - 1, padc);
	} else {
		// print any needed pad characters before first digit
		while (--width > 0)
  800a85:	83 eb 01             	sub    $0x1,%ebx
  800a88:	75 f1                	jne    800a7b <printnum+0x9b>
			putch(padc, putdat);
	}

	// then print this (the least significant) digit
	putch("0123456789abcdef"[num % base], putdat);
  800a8a:	89 7c 24 04          	mov    %edi,0x4(%esp)
  800a8e:	8b 74 24 04          	mov    0x4(%esp),%esi
  800a92:	8b 45 e8             	mov    -0x18(%ebp),%eax
  800a95:	8b 55 ec             	mov    -0x14(%ebp),%edx
  800a98:	89 44 24 08          	mov    %eax,0x8(%esp)
  800a9c:	89 54 24 0c          	mov    %edx,0xc(%esp)
  800aa0:	8b 45 d8             	mov    -0x28(%ebp),%eax
  800aa3:	8b 55 dc             	mov    -0x24(%ebp),%edx
  800aa6:	89 04 24             	mov    %eax,(%esp)
  800aa9:	89 54 24 04          	mov    %edx,0x4(%esp)
  800aad:	e8 5e 14 01 00       	call   811f10 <__umoddi3>
  800ab2:	89 74 24 04          	mov    %esi,0x4(%esp)
  800ab6:	0f be 80 26 23 81 00 	movsbl 0x812326(%eax),%eax
  800abd:	89 04 24             	mov    %eax,(%esp)
  800ac0:	ff 55 e4             	call   *-0x1c(%ebp)
}
  800ac3:	83 c4 3c             	add    $0x3c,%esp
  800ac6:	5b                   	pop    %ebx
  800ac7:	5e                   	pop    %esi
  800ac8:	5f                   	pop    %edi
  800ac9:	5d                   	pop    %ebp
  800aca:	c3                   	ret    

00800acb <getuint>:

// Get an unsigned int of various possible sizes from a varargs list,
// depending on the lflag parameter.
static unsigned long long
getuint(va_list *ap, int lflag)
{
  800acb:	55                   	push   %ebp
  800acc:	89 e5                	mov    %esp,%ebp
  800ace:	89 c1                	mov    %eax,%ecx
	if (lflag >= 2)
  800ad0:	83 fa 01             	cmp    $0x1,%edx
  800ad3:	7e 0e                	jle    800ae3 <getuint+0x18>
		return va_arg(*ap, unsigned long long);
  800ad5:	8b 10                	mov    (%eax),%edx
  800ad7:	8d 42 08             	lea    0x8(%edx),%eax
  800ada:	89 01                	mov    %eax,(%ecx)
  800adc:	8b 02                	mov    (%edx),%eax
  800ade:	8b 52 04             	mov    0x4(%edx),%edx
  800ae1:	eb 22                	jmp    800b05 <getuint+0x3a>
	else if (lflag)
  800ae3:	85 d2                	test   %edx,%edx
  800ae5:	74 10                	je     800af7 <getuint+0x2c>
		return va_arg(*ap, unsigned long);
  800ae7:	8b 10                	mov    (%eax),%edx
  800ae9:	8d 42 04             	lea    0x4(%edx),%eax
  800aec:	89 01                	mov    %eax,(%ecx)
  800aee:	8b 02                	mov    (%edx),%eax
  800af0:	ba 00 00 00 00       	mov    $0x0,%edx
  800af5:	eb 0e                	jmp    800b05 <getuint+0x3a>
	else
		return va_arg(*ap, unsigned int);
  800af7:	8b 10                	mov    (%eax),%edx
  800af9:	8d 42 04             	lea    0x4(%edx),%eax
  800afc:	89 01                	mov    %eax,(%ecx)
  800afe:	8b 02                	mov    (%edx),%eax
  800b00:	ba 00 00 00 00       	mov    $0x0,%edx
}
  800b05:	5d                   	pop    %ebp
  800b06:	c3                   	ret    

00800b07 <sprintputch>:
	int cnt;
};

static void
sprintputch(int ch, struct sprintbuf *b)
{
  800b07:	55                   	push   %ebp
  800b08:	89 e5                	mov    %esp,%ebp
  800b0a:	8b 55 0c             	mov    0xc(%ebp),%edx
	b->cnt++;
  800b0d:	83 42 08 01          	addl   $0x1,0x8(%edx)
	if (b->buf < b->ebuf)
  800b11:	8b 02                	mov    (%edx),%eax
  800b13:	3b 42 04             	cmp    0x4(%edx),%eax
  800b16:	73 0b                	jae    800b23 <sprintputch+0x1c>
		*b->buf++ = ch;
  800b18:	0f b6 4d 08          	movzbl 0x8(%ebp),%ecx
  800b1c:	88 08                	mov    %cl,(%eax)
  800b1e:	83 c0 01             	add    $0x1,%eax
  800b21:	89 02                	mov    %eax,(%edx)
}
  800b23:	5d                   	pop    %ebp
  800b24:	c3                   	ret    

00800b25 <vprintfmt>:
// Main function to format and print a string.
void printfmt(void (*putch)(int, void*), void *putdat, const char *fmt, ...);

void
vprintfmt(void (*putch)(int, void*), void *putdat, const char *fmt, va_list ap)
{
  800b25:	55                   	push   %ebp
  800b26:	89 e5                	mov    %esp,%ebp
  800b28:	57                   	push   %edi
  800b29:	56                   	push   %esi
  800b2a:	53                   	push   %ebx
  800b2b:	83 ec 3c             	sub    $0x3c,%esp
  800b2e:	8b 5d 10             	mov    0x10(%ebp),%ebx
  800b31:	eb 18                	jmp    800b4b <vprintfmt+0x26>
	int base, lflag, width, precision, altflag;
	char padc;

	while (1) {
		while ((ch = *(unsigned char *) fmt++) != '%') {
			if (ch == '\0')
  800b33:	84 c0                	test   %al,%al
  800b35:	0f 84 9f 03 00 00    	je     800eda <vprintfmt+0x3b5>
				return;
			putch(ch, putdat);
  800b3b:	8b 55 0c             	mov    0xc(%ebp),%edx
  800b3e:	89 54 24 04          	mov    %edx,0x4(%esp)
  800b42:	0f b6 c0             	movzbl %al,%eax
  800b45:	89 04 24             	mov    %eax,(%esp)
  800b48:	ff 55 08             	call   *0x8(%ebp)
	unsigned long long num;
	int base, lflag, width, precision, altflag;
	char padc;

	while (1) {
		while ((ch = *(unsigned char *) fmt++) != '%') {
  800b4b:	0f b6 03             	movzbl (%ebx),%eax
  800b4e:	83 c3 01             	add    $0x1,%ebx
  800b51:	3c 25                	cmp    $0x25,%al
  800b53:	75 de                	jne    800b33 <vprintfmt+0xe>
  800b55:	b9 00 00 00 00       	mov    $0x0,%ecx
  800b5a:	c7 45 f0 ff ff ff ff 	movl   $0xffffffff,-0x10(%ebp)
  800b61:	bf ff ff ff ff       	mov    $0xffffffff,%edi
  800b66:	c7 45 e4 00 00 00 00 	movl   $0x0,-0x1c(%ebp)
  800b6d:	c6 45 eb 20          	movb   $0x20,-0x15(%ebp)
  800b71:	eb 07                	jmp    800b7a <vprintfmt+0x55>
  800b73:	c7 45 e4 01 00 00 00 	movl   $0x1,-0x1c(%ebp)
		width = -1;
		precision = -1;
		lflag = 0;
		altflag = 0;
	reswitch:
		switch (ch = *(unsigned char *) fmt++) {
  800b7a:	0f b6 13             	movzbl (%ebx),%edx
  800b7d:	83 c3 01             	add    $0x1,%ebx
  800b80:	8d 42 dd             	lea    -0x23(%edx),%eax
  800b83:	3c 55                	cmp    $0x55,%al
  800b85:	0f 87 22 03 00 00    	ja     800ead <vprintfmt+0x388>
  800b8b:	0f b6 c0             	movzbl %al,%eax
  800b8e:	ff 24 85 60 24 81 00 	jmp    *0x812460(,%eax,4)
  800b95:	c6 45 eb 30          	movb   $0x30,-0x15(%ebp)
  800b99:	eb df                	jmp    800b7a <vprintfmt+0x55>
		case '6':
		case '7':
		case '8':
		case '9':
			for (precision = 0; ; ++fmt) {
				precision = precision * 10 + ch - '0';
  800b9b:	0f b6 c2             	movzbl %dl,%eax
  800b9e:	8d 78 d0             	lea    -0x30(%eax),%edi
				ch = *fmt;
  800ba1:	0f be 13             	movsbl (%ebx),%edx
				if (ch < '0' || ch > '9')
  800ba4:	8d 42 d0             	lea    -0x30(%edx),%eax
  800ba7:	83 f8 09             	cmp    $0x9,%eax
  800baa:	76 08                	jbe    800bb4 <vprintfmt+0x8f>
  800bac:	eb 39                	jmp    800be7 <vprintfmt+0xc2>
  800bae:	c6 45 eb 2d          	movb   $0x2d,-0x15(%ebp)
  800bb2:	eb c6                	jmp    800b7a <vprintfmt+0x55>
		case '5':
		case '6':
		case '7':
		case '8':
		case '9':
			for (precision = 0; ; ++fmt) {
  800bb4:	83 c3 01             	add    $0x1,%ebx
				precision = precision * 10 + ch - '0';
  800bb7:	8d 04 bf             	lea    (%edi,%edi,4),%eax
  800bba:	8d 7c 42 d0          	lea    -0x30(%edx,%eax,2),%edi
				ch = *fmt;
  800bbe:	0f be 13             	movsbl (%ebx),%edx
				if (ch < '0' || ch > '9')
  800bc1:	8d 42 d0             	lea    -0x30(%edx),%eax
  800bc4:	83 f8 09             	cmp    $0x9,%eax
  800bc7:	77 1e                	ja     800be7 <vprintfmt+0xc2>
  800bc9:	eb e9                	jmp    800bb4 <vprintfmt+0x8f>
					break;
			}
			goto process_precision;

		case '*':
			precision = va_arg(ap, int);
  800bcb:	8b 55 14             	mov    0x14(%ebp),%edx
  800bce:	8d 42 04             	lea    0x4(%edx),%eax
  800bd1:	89 45 14             	mov    %eax,0x14(%ebp)
  800bd4:	8b 3a                	mov    (%edx),%edi
  800bd6:	eb 0f                	jmp    800be7 <vprintfmt+0xc2>
			goto process_precision;

		case '.':
			if (width < 0)
  800bd8:	83 7d f0 00          	cmpl   $0x0,-0x10(%ebp)
  800bdc:	79 9c                	jns    800b7a <vprintfmt+0x55>
  800bde:	c7 45 f0 00 00 00 00 	movl   $0x0,-0x10(%ebp)
  800be5:	eb 93                	jmp    800b7a <vprintfmt+0x55>
		case '#':
			altflag = 1;
			goto reswitch;

		process_precision:
			if (width < 0)
  800be7:	83 7d f0 00          	cmpl   $0x0,-0x10(%ebp)
  800beb:	90                   	nop    
  800bec:	8d 74 26 00          	lea    0x0(%esi),%esi
  800bf0:	79 88                	jns    800b7a <vprintfmt+0x55>
  800bf2:	89 7d f0             	mov    %edi,-0x10(%ebp)
  800bf5:	bf ff ff ff ff       	mov    $0xffffffff,%edi
  800bfa:	e9 7b ff ff ff       	jmp    800b7a <vprintfmt+0x55>
				width = precision, precision = -1;
			goto reswitch;

		// long flag (doubled for long long)
		case 'l':
			lflag++;
  800bff:	83 c1 01             	add    $0x1,%ecx
  800c02:	e9 73 ff ff ff       	jmp    800b7a <vprintfmt+0x55>
			goto reswitch;

		// character
		case 'c':
			putch(va_arg(ap, int), putdat);
  800c07:	8b 45 14             	mov    0x14(%ebp),%eax
  800c0a:	8d 50 04             	lea    0x4(%eax),%edx
  800c0d:	89 55 14             	mov    %edx,0x14(%ebp)
  800c10:	8b 55 0c             	mov    0xc(%ebp),%edx
  800c13:	89 54 24 04          	mov    %edx,0x4(%esp)
  800c17:	8b 00                	mov    (%eax),%eax
  800c19:	89 04 24             	mov    %eax,(%esp)
  800c1c:	ff 55 08             	call   *0x8(%ebp)
  800c1f:	e9 27 ff ff ff       	jmp    800b4b <vprintfmt+0x26>
			break;

		// error message
		case 'e':
			err = va_arg(ap, int);
  800c24:	8b 55 14             	mov    0x14(%ebp),%edx
  800c27:	8d 42 04             	lea    0x4(%edx),%eax
  800c2a:	89 45 14             	mov    %eax,0x14(%ebp)
  800c2d:	8b 02                	mov    (%edx),%eax
  800c2f:	89 c2                	mov    %eax,%edx
  800c31:	c1 fa 1f             	sar    $0x1f,%edx
  800c34:	31 d0                	xor    %edx,%eax
  800c36:	29 d0                	sub    %edx,%eax
			if (err < 0)
				err = -err;
			if (err > MAXERROR || (p = error_string[err]) == NULL)
  800c38:	83 f8 0f             	cmp    $0xf,%eax
  800c3b:	7f 0b                	jg     800c48 <vprintfmt+0x123>
  800c3d:	8b 14 85 c0 25 81 00 	mov    0x8125c0(,%eax,4),%edx
  800c44:	85 d2                	test   %edx,%edx
  800c46:	75 23                	jne    800c6b <vprintfmt+0x146>
				printfmt(putch, putdat, "error %d", err);
  800c48:	89 44 24 0c          	mov    %eax,0xc(%esp)
  800c4c:	c7 44 24 08 37 23 81 	movl   $0x812337,0x8(%esp)
  800c53:	00 
  800c54:	8b 45 0c             	mov    0xc(%ebp),%eax
  800c57:	89 44 24 04          	mov    %eax,0x4(%esp)
  800c5b:	8b 55 08             	mov    0x8(%ebp),%edx
  800c5e:	89 14 24             	mov    %edx,(%esp)
  800c61:	e8 ff 02 00 00       	call   800f65 <printfmt>
  800c66:	e9 e0 fe ff ff       	jmp    800b4b <vprintfmt+0x26>
			else
				printfmt(putch, putdat, "%s", p);
  800c6b:	89 54 24 0c          	mov    %edx,0xc(%esp)
  800c6f:	c7 44 24 08 4a 28 81 	movl   $0x81284a,0x8(%esp)
  800c76:	00 
  800c77:	8b 45 0c             	mov    0xc(%ebp),%eax
  800c7a:	89 44 24 04          	mov    %eax,0x4(%esp)
  800c7e:	8b 55 08             	mov    0x8(%ebp),%edx
  800c81:	89 14 24             	mov    %edx,(%esp)
  800c84:	e8 dc 02 00 00       	call   800f65 <printfmt>
  800c89:	e9 bd fe ff ff       	jmp    800b4b <vprintfmt+0x26>
  800c8e:	8b 75 f0             	mov    -0x10(%ebp),%esi
  800c91:	89 f9                	mov    %edi,%ecx
  800c93:	89 5d ec             	mov    %ebx,-0x14(%ebp)
			break;

		// string
		case 's':
			if ((p = va_arg(ap, char *)) == NULL)
  800c96:	8b 55 14             	mov    0x14(%ebp),%edx
  800c99:	8d 42 04             	lea    0x4(%edx),%eax
  800c9c:	89 45 14             	mov    %eax,0x14(%ebp)
  800c9f:	8b 12                	mov    (%edx),%edx
  800ca1:	89 55 dc             	mov    %edx,-0x24(%ebp)
  800ca4:	85 d2                	test   %edx,%edx
  800ca6:	75 07                	jne    800caf <vprintfmt+0x18a>
  800ca8:	c7 45 dc 40 23 81 00 	movl   $0x812340,-0x24(%ebp)
				p = "(null)";
			if (width > 0 && padc != '-')
  800caf:	85 f6                	test   %esi,%esi
  800cb1:	7e 41                	jle    800cf4 <vprintfmt+0x1cf>
  800cb3:	80 7d eb 2d          	cmpb   $0x2d,-0x15(%ebp)
  800cb7:	74 3b                	je     800cf4 <vprintfmt+0x1cf>
				for (width -= strnlen(p, precision); width > 0; width--)
  800cb9:	89 4c 24 04          	mov    %ecx,0x4(%esp)
  800cbd:	8b 45 dc             	mov    -0x24(%ebp),%eax
  800cc0:	89 04 24             	mov    %eax,(%esp)
  800cc3:	e8 e8 02 00 00       	call   800fb0 <strnlen>
  800cc8:	29 c6                	sub    %eax,%esi
  800cca:	89 75 f0             	mov    %esi,-0x10(%ebp)
  800ccd:	85 f6                	test   %esi,%esi
  800ccf:	7e 23                	jle    800cf4 <vprintfmt+0x1cf>
					putch(padc, putdat);
  800cd1:	0f be 55 eb          	movsbl -0x15(%ebp),%edx
  800cd5:	89 55 d8             	mov    %edx,-0x28(%ebp)
  800cd8:	8b 45 0c             	mov    0xc(%ebp),%eax
  800cdb:	89 44 24 04          	mov    %eax,0x4(%esp)
  800cdf:	8b 55 d8             	mov    -0x28(%ebp),%edx
  800ce2:	89 14 24             	mov    %edx,(%esp)
  800ce5:	ff 55 08             	call   *0x8(%ebp)
		// string
		case 's':
			if ((p = va_arg(ap, char *)) == NULL)
				p = "(null)";
			if (width > 0 && padc != '-')
				for (width -= strnlen(p, precision); width > 0; width--)
  800ce8:	83 ee 01             	sub    $0x1,%esi
  800ceb:	75 eb                	jne    800cd8 <vprintfmt+0x1b3>
  800ced:	c7 45 f0 00 00 00 00 	movl   $0x0,-0x10(%ebp)
					putch(padc, putdat);
			for (; (ch = *p++) != '\0' && (precision < 0 || --precision >= 0); width--)
  800cf4:	8b 55 dc             	mov    -0x24(%ebp),%edx
  800cf7:	0f b6 02             	movzbl (%edx),%eax
  800cfa:	0f be d0             	movsbl %al,%edx
  800cfd:	8b 75 dc             	mov    -0x24(%ebp),%esi
  800d00:	84 c0                	test   %al,%al
  800d02:	75 42                	jne    800d46 <vprintfmt+0x221>
  800d04:	eb 49                	jmp    800d4f <vprintfmt+0x22a>
				if (altflag && (ch < ' ' || ch > '~'))
  800d06:	83 7d e4 00          	cmpl   $0x0,-0x1c(%ebp)
  800d0a:	74 1b                	je     800d27 <vprintfmt+0x202>
  800d0c:	8d 42 e0             	lea    -0x20(%edx),%eax
  800d0f:	83 f8 5e             	cmp    $0x5e,%eax
  800d12:	76 13                	jbe    800d27 <vprintfmt+0x202>
					putch('?', putdat);
  800d14:	8b 45 0c             	mov    0xc(%ebp),%eax
  800d17:	89 44 24 04          	mov    %eax,0x4(%esp)
  800d1b:	c7 04 24 3f 00 00 00 	movl   $0x3f,(%esp)
  800d22:	ff 55 08             	call   *0x8(%ebp)
  800d25:	eb 0d                	jmp    800d34 <vprintfmt+0x20f>
				else
					putch(ch, putdat);
  800d27:	8b 45 0c             	mov    0xc(%ebp),%eax
  800d2a:	89 44 24 04          	mov    %eax,0x4(%esp)
  800d2e:	89 14 24             	mov    %edx,(%esp)
  800d31:	ff 55 08             	call   *0x8(%ebp)
			if ((p = va_arg(ap, char *)) == NULL)
				p = "(null)";
			if (width > 0 && padc != '-')
				for (width -= strnlen(p, precision); width > 0; width--)
					putch(padc, putdat);
			for (; (ch = *p++) != '\0' && (precision < 0 || --precision >= 0); width--)
  800d34:	83 6d f0 01          	subl   $0x1,-0x10(%ebp)
  800d38:	0f b6 46 01          	movzbl 0x1(%esi),%eax
  800d3c:	83 c6 01             	add    $0x1,%esi
  800d3f:	84 c0                	test   %al,%al
  800d41:	74 0c                	je     800d4f <vprintfmt+0x22a>
  800d43:	0f be d0             	movsbl %al,%edx
  800d46:	85 ff                	test   %edi,%edi
  800d48:	78 bc                	js     800d06 <vprintfmt+0x1e1>
  800d4a:	83 ef 01             	sub    $0x1,%edi
  800d4d:	79 b7                	jns    800d06 <vprintfmt+0x1e1>
				if (altflag && (ch < ' ' || ch > '~'))
					putch('?', putdat);
				else
					putch(ch, putdat);
			for (; width > 0; width--)
  800d4f:	83 7d f0 00          	cmpl   $0x0,-0x10(%ebp)
  800d53:	0f 8e f2 fd ff ff    	jle    800b4b <vprintfmt+0x26>
				putch(' ', putdat);
  800d59:	8b 55 0c             	mov    0xc(%ebp),%edx
  800d5c:	89 54 24 04          	mov    %edx,0x4(%esp)
  800d60:	c7 04 24 20 00 00 00 	movl   $0x20,(%esp)
  800d67:	ff 55 08             	call   *0x8(%ebp)
			for (; (ch = *p++) != '\0' && (precision < 0 || --precision >= 0); width--)
				if (altflag && (ch < ' ' || ch > '~'))
					putch('?', putdat);
				else
					putch(ch, putdat);
			for (; width > 0; width--)
  800d6a:	83 6d f0 01          	subl   $0x1,-0x10(%ebp)
  800d6e:	75 e9                	jne    800d59 <vprintfmt+0x234>
  800d70:	8b 5d ec             	mov    -0x14(%ebp),%ebx
  800d73:	e9 d3 fd ff ff       	jmp    800b4b <vprintfmt+0x26>
// Same as getuint but signed - can't use getuint
// because of sign extension
static long long
getint(va_list *ap, int lflag)
{
	if (lflag >= 2)
  800d78:	83 f9 01             	cmp    $0x1,%ecx
  800d7b:	90                   	nop    
  800d7c:	8d 74 26 00          	lea    0x0(%esi),%esi
  800d80:	7e 10                	jle    800d92 <vprintfmt+0x26d>
		return va_arg(*ap, long long);
  800d82:	8b 55 14             	mov    0x14(%ebp),%edx
  800d85:	8d 42 08             	lea    0x8(%edx),%eax
  800d88:	89 45 14             	mov    %eax,0x14(%ebp)
  800d8b:	8b 32                	mov    (%edx),%esi
  800d8d:	8b 7a 04             	mov    0x4(%edx),%edi
  800d90:	eb 2a                	jmp    800dbc <vprintfmt+0x297>
	else if (lflag)
  800d92:	85 c9                	test   %ecx,%ecx
  800d94:	74 14                	je     800daa <vprintfmt+0x285>
		return va_arg(*ap, long);
  800d96:	8b 45 14             	mov    0x14(%ebp),%eax
  800d99:	8d 50 04             	lea    0x4(%eax),%edx
  800d9c:	89 55 14             	mov    %edx,0x14(%ebp)
  800d9f:	8b 00                	mov    (%eax),%eax
  800da1:	89 c6                	mov    %eax,%esi
  800da3:	89 c7                	mov    %eax,%edi
  800da5:	c1 ff 1f             	sar    $0x1f,%edi
  800da8:	eb 12                	jmp    800dbc <vprintfmt+0x297>
	else
		return va_arg(*ap, int);
  800daa:	8b 45 14             	mov    0x14(%ebp),%eax
  800dad:	8d 50 04             	lea    0x4(%eax),%edx
  800db0:	89 55 14             	mov    %edx,0x14(%ebp)
  800db3:	8b 00                	mov    (%eax),%eax
  800db5:	89 c6                	mov    %eax,%esi
  800db7:	89 c7                	mov    %eax,%edi
  800db9:	c1 ff 1f             	sar    $0x1f,%edi
				putch(' ', putdat);
			break;

		// (signed) decimal
		case 'd':
			num = getint(&ap, lflag);
  800dbc:	89 f2                	mov    %esi,%edx
  800dbe:	89 f9                	mov    %edi,%ecx
  800dc0:	c7 45 e0 0a 00 00 00 	movl   $0xa,-0x20(%ebp)
			if ((long long) num < 0) {
  800dc7:	85 ff                	test   %edi,%edi
  800dc9:	0f 89 9b 00 00 00    	jns    800e6a <vprintfmt+0x345>
				putch('-', putdat);
  800dcf:	8b 45 0c             	mov    0xc(%ebp),%eax
  800dd2:	89 44 24 04          	mov    %eax,0x4(%esp)
  800dd6:	c7 04 24 2d 00 00 00 	movl   $0x2d,(%esp)
  800ddd:	ff 55 08             	call   *0x8(%ebp)
				num = -(long long) num;
  800de0:	89 f2                	mov    %esi,%edx
  800de2:	89 f9                	mov    %edi,%ecx
  800de4:	f7 da                	neg    %edx
  800de6:	83 d1 00             	adc    $0x0,%ecx
  800de9:	f7 d9                	neg    %ecx
  800deb:	c7 45 e0 0a 00 00 00 	movl   $0xa,-0x20(%ebp)
  800df2:	eb 76                	jmp    800e6a <vprintfmt+0x345>
			base = 10;
			goto number;

		// unsigned decimal
		case 'u':
			num = getuint(&ap, lflag);
  800df4:	89 ca                	mov    %ecx,%edx
  800df6:	8d 45 14             	lea    0x14(%ebp),%eax
  800df9:	e8 cd fc ff ff       	call   800acb <getuint>
  800dfe:	89 d1                	mov    %edx,%ecx
  800e00:	89 c2                	mov    %eax,%edx
  800e02:	c7 45 e0 0a 00 00 00 	movl   $0xa,-0x20(%ebp)
  800e09:	eb 5f                	jmp    800e6a <vprintfmt+0x345>
		case 'o':
			// Replace this with your code.
			//putch('X', putdat);
			//putch('X', putdat);
			//putch('X', putdat);
			num = getuint(&ap,lflag);
  800e0b:	89 ca                	mov    %ecx,%edx
  800e0d:	8d 45 14             	lea    0x14(%ebp),%eax
  800e10:	e8 b6 fc ff ff       	call   800acb <getuint>
  800e15:	e9 31 fd ff ff       	jmp    800b4b <vprintfmt+0x26>
			base=8;
			break;

		// pointer
		case 'p':
			putch('0', putdat);
  800e1a:	8b 55 0c             	mov    0xc(%ebp),%edx
  800e1d:	89 54 24 04          	mov    %edx,0x4(%esp)
  800e21:	c7 04 24 30 00 00 00 	movl   $0x30,(%esp)
  800e28:	ff 55 08             	call   *0x8(%ebp)
			putch('x', putdat);
  800e2b:	8b 45 0c             	mov    0xc(%ebp),%eax
  800e2e:	89 44 24 04          	mov    %eax,0x4(%esp)
  800e32:	c7 04 24 78 00 00 00 	movl   $0x78,(%esp)
  800e39:	ff 55 08             	call   *0x8(%ebp)
			num = (unsigned long long)
  800e3c:	8b 55 14             	mov    0x14(%ebp),%edx
  800e3f:	8d 42 04             	lea    0x4(%edx),%eax
  800e42:	89 45 14             	mov    %eax,0x14(%ebp)
  800e45:	8b 12                	mov    (%edx),%edx
  800e47:	b9 00 00 00 00       	mov    $0x0,%ecx
  800e4c:	c7 45 e0 10 00 00 00 	movl   $0x10,-0x20(%ebp)
  800e53:	eb 15                	jmp    800e6a <vprintfmt+0x345>
			base = 16;
			goto number;

		// (unsigned) hexadecimal
		case 'x':
			num = getuint(&ap, lflag);
  800e55:	89 ca                	mov    %ecx,%edx
  800e57:	8d 45 14             	lea    0x14(%ebp),%eax
  800e5a:	e8 6c fc ff ff       	call   800acb <getuint>
  800e5f:	89 d1                	mov    %edx,%ecx
  800e61:	89 c2                	mov    %eax,%edx
  800e63:	c7 45 e0 10 00 00 00 	movl   $0x10,-0x20(%ebp)
			base = 16;
		number:
			printnum(putch, putdat, num, base, width, padc);
  800e6a:	0f be 45 eb          	movsbl -0x15(%ebp),%eax
  800e6e:	89 44 24 10          	mov    %eax,0x10(%esp)
  800e72:	8b 45 f0             	mov    -0x10(%ebp),%eax
  800e75:	89 44 24 0c          	mov    %eax,0xc(%esp)
  800e79:	8b 45 e0             	mov    -0x20(%ebp),%eax
  800e7c:	89 44 24 08          	mov    %eax,0x8(%esp)
  800e80:	89 14 24             	mov    %edx,(%esp)
  800e83:	89 4c 24 04          	mov    %ecx,0x4(%esp)
  800e87:	8b 55 0c             	mov    0xc(%ebp),%edx
  800e8a:	8b 45 08             	mov    0x8(%ebp),%eax
  800e8d:	e8 4e fb ff ff       	call   8009e0 <printnum>
  800e92:	e9 b4 fc ff ff       	jmp    800b4b <vprintfmt+0x26>
			break;

		// escaped '%' character
		case '%':
			putch(ch, putdat);
  800e97:	8b 55 0c             	mov    0xc(%ebp),%edx
  800e9a:	89 54 24 04          	mov    %edx,0x4(%esp)
  800e9e:	c7 04 24 25 00 00 00 	movl   $0x25,(%esp)
  800ea5:	ff 55 08             	call   *0x8(%ebp)
  800ea8:	e9 9e fc ff ff       	jmp    800b4b <vprintfmt+0x26>
			break;
			
		// unrecognized escape sequence - just print it literally
		default:
			putch('%', putdat);
  800ead:	8b 45 0c             	mov    0xc(%ebp),%eax
  800eb0:	89 44 24 04          	mov    %eax,0x4(%esp)
  800eb4:	c7 04 24 25 00 00 00 	movl   $0x25,(%esp)
  800ebb:	ff 55 08             	call   *0x8(%ebp)
			for (fmt--; fmt[-1] != '%'; fmt--)
  800ebe:	83 eb 01             	sub    $0x1,%ebx
  800ec1:	80 7b ff 25          	cmpb   $0x25,-0x1(%ebx)
  800ec5:	0f 84 80 fc ff ff    	je     800b4b <vprintfmt+0x26>
  800ecb:	83 eb 01             	sub    $0x1,%ebx
  800ece:	80 7b ff 25          	cmpb   $0x25,-0x1(%ebx)
  800ed2:	0f 84 73 fc ff ff    	je     800b4b <vprintfmt+0x26>
  800ed8:	eb f1                	jmp    800ecb <vprintfmt+0x3a6>
				/* do nothing */;
			break;
		}
	}
}
  800eda:	83 c4 3c             	add    $0x3c,%esp
  800edd:	5b                   	pop    %ebx
  800ede:	5e                   	pop    %esi
  800edf:	5f                   	pop    %edi
  800ee0:	5d                   	pop    %ebp
  800ee1:	c3                   	ret    

00800ee2 <vsnprintf>:
		*b->buf++ = ch;
}

int
vsnprintf(char *buf, int n, const char *fmt, va_list ap)
{
  800ee2:	55                   	push   %ebp
  800ee3:	89 e5                	mov    %esp,%ebp
  800ee5:	83 ec 28             	sub    $0x28,%esp
  800ee8:	8b 55 08             	mov    0x8(%ebp),%edx
  800eeb:	8b 45 0c             	mov    0xc(%ebp),%eax
	struct sprintbuf b = {buf, buf+n-1, 0};

	if (buf == NULL || n < 1)
  800eee:	85 d2                	test   %edx,%edx
  800ef0:	74 04                	je     800ef6 <vsnprintf+0x14>
  800ef2:	85 c0                	test   %eax,%eax
  800ef4:	7f 07                	jg     800efd <vsnprintf+0x1b>
  800ef6:	b8 fd ff ff ff       	mov    $0xfffffffd,%eax
  800efb:	eb 3b                	jmp    800f38 <vsnprintf+0x56>
}

int
vsnprintf(char *buf, int n, const char *fmt, va_list ap)
{
	struct sprintbuf b = {buf, buf+n-1, 0};
  800efd:	c7 45 fc 00 00 00 00 	movl   $0x0,-0x4(%ebp)
  800f04:	8d 44 02 ff          	lea    -0x1(%edx,%eax,1),%eax
  800f08:	89 45 f8             	mov    %eax,-0x8(%ebp)
  800f0b:	89 55 f4             	mov    %edx,-0xc(%ebp)

	if (buf == NULL || n < 1)
		return -E_INVAL;

	// print the string to the buffer
	vprintfmt((void*)sprintputch, &b, fmt, ap);
  800f0e:	8b 45 14             	mov    0x14(%ebp),%eax
  800f11:	89 44 24 0c          	mov    %eax,0xc(%esp)
  800f15:	8b 45 10             	mov    0x10(%ebp),%eax
  800f18:	89 44 24 08          	mov    %eax,0x8(%esp)
  800f1c:	8d 45 f4             	lea    -0xc(%ebp),%eax
  800f1f:	89 44 24 04          	mov    %eax,0x4(%esp)
  800f23:	c7 04 24 07 0b 80 00 	movl   $0x800b07,(%esp)
  800f2a:	e8 f6 fb ff ff       	call   800b25 <vprintfmt>

	// null terminate the buffer
	*b.buf = '\0';
  800f2f:	8b 45 f4             	mov    -0xc(%ebp),%eax
  800f32:	c6 00 00             	movb   $0x0,(%eax)

	return b.cnt;
  800f35:	8b 45 fc             	mov    -0x4(%ebp),%eax
}
  800f38:	c9                   	leave  
  800f39:	c3                   	ret    

00800f3a <snprintf>:

int
snprintf(char *buf, int n, const char *fmt, ...)
{
  800f3a:	55                   	push   %ebp
  800f3b:	89 e5                	mov    %esp,%ebp
  800f3d:	83 ec 28             	sub    $0x28,%esp
	va_list ap;
	int rc;

	va_start(ap, fmt);
  800f40:	8d 45 14             	lea    0x14(%ebp),%eax
  800f43:	89 45 fc             	mov    %eax,-0x4(%ebp)
	rc = vsnprintf(buf, n, fmt, ap);
  800f46:	89 44 24 0c          	mov    %eax,0xc(%esp)
  800f4a:	8b 45 10             	mov    0x10(%ebp),%eax
  800f4d:	89 44 24 08          	mov    %eax,0x8(%esp)
  800f51:	8b 45 0c             	mov    0xc(%ebp),%eax
  800f54:	89 44 24 04          	mov    %eax,0x4(%esp)
  800f58:	8b 45 08             	mov    0x8(%ebp),%eax
  800f5b:	89 04 24             	mov    %eax,(%esp)
  800f5e:	e8 7f ff ff ff       	call   800ee2 <vsnprintf>
	va_end(ap);

	return rc;
}
  800f63:	c9                   	leave  
  800f64:	c3                   	ret    

00800f65 <printfmt>:
	}
}

void
printfmt(void (*putch)(int, void*), void *putdat, const char *fmt, ...)
{
  800f65:	55                   	push   %ebp
  800f66:	89 e5                	mov    %esp,%ebp
  800f68:	83 ec 28             	sub    $0x28,%esp
	va_list ap;

	va_start(ap, fmt);
  800f6b:	8d 45 14             	lea    0x14(%ebp),%eax
  800f6e:	89 45 fc             	mov    %eax,-0x4(%ebp)
	vprintfmt(putch, putdat, fmt, ap);
  800f71:	89 44 24 0c          	mov    %eax,0xc(%esp)
  800f75:	8b 45 10             	mov    0x10(%ebp),%eax
  800f78:	89 44 24 08          	mov    %eax,0x8(%esp)
  800f7c:	8b 45 0c             	mov    0xc(%ebp),%eax
  800f7f:	89 44 24 04          	mov    %eax,0x4(%esp)
  800f83:	8b 45 08             	mov    0x8(%ebp),%eax
  800f86:	89 04 24             	mov    %eax,(%esp)
  800f89:	e8 97 fb ff ff       	call   800b25 <vprintfmt>
	va_end(ap);
}
  800f8e:	c9                   	leave  
  800f8f:	c3                   	ret    

00800f90 <strlen>:
// Primespipe runs 3x faster this way.
#define ASM 1

int
strlen(const char *s)
{
  800f90:	55                   	push   %ebp
  800f91:	89 e5                	mov    %esp,%ebp
  800f93:	8b 55 08             	mov    0x8(%ebp),%edx
	int n;

	for (n = 0; *s != '\0'; s++)
  800f96:	b8 00 00 00 00       	mov    $0x0,%eax
  800f9b:	80 3a 00             	cmpb   $0x0,(%edx)
  800f9e:	74 0e                	je     800fae <strlen+0x1e>
  800fa0:	b8 00 00 00 00       	mov    $0x0,%eax
		n++;
  800fa5:	83 c0 01             	add    $0x1,%eax
int
strlen(const char *s)
{
	int n;

	for (n = 0; *s != '\0'; s++)
  800fa8:	80 3c 10 00          	cmpb   $0x0,(%eax,%edx,1)
  800fac:	75 f7                	jne    800fa5 <strlen+0x15>
		n++;
	return n;
}
  800fae:	5d                   	pop    %ebp
  800faf:	c3                   	ret    

00800fb0 <strnlen>:

int
strnlen(const char *s, size_t size)
{
  800fb0:	55                   	push   %ebp
  800fb1:	89 e5                	mov    %esp,%ebp
  800fb3:	8b 4d 08             	mov    0x8(%ebp),%ecx
  800fb6:	8b 55 0c             	mov    0xc(%ebp),%edx
	int n;

	for (n = 0; size > 0 && *s != '\0'; s++, size--)
  800fb9:	85 d2                	test   %edx,%edx
  800fbb:	74 19                	je     800fd6 <strnlen+0x26>
  800fbd:	80 39 00             	cmpb   $0x0,(%ecx)
  800fc0:	74 14                	je     800fd6 <strnlen+0x26>
  800fc2:	b8 00 00 00 00       	mov    $0x0,%eax
		n++;
  800fc7:	83 c0 01             	add    $0x1,%eax
int
strnlen(const char *s, size_t size)
{
	int n;

	for (n = 0; size > 0 && *s != '\0'; s++, size--)
  800fca:	39 d0                	cmp    %edx,%eax
  800fcc:	74 0d                	je     800fdb <strnlen+0x2b>
  800fce:	80 3c 08 00          	cmpb   $0x0,(%eax,%ecx,1)
  800fd2:	74 07                	je     800fdb <strnlen+0x2b>
  800fd4:	eb f1                	jmp    800fc7 <strnlen+0x17>
  800fd6:	b8 00 00 00 00       	mov    $0x0,%eax
		n++;
	return n;
}
  800fdb:	5d                   	pop    %ebp
  800fdc:	8d 74 26 00          	lea    0x0(%esi),%esi
  800fe0:	c3                   	ret    

00800fe1 <strcpy>:

char *
strcpy(char *dst, const char *src)
{
  800fe1:	55                   	push   %ebp
  800fe2:	89 e5                	mov    %esp,%ebp
  800fe4:	53                   	push   %ebx
  800fe5:	8b 5d 08             	mov    0x8(%ebp),%ebx
  800fe8:	8b 4d 0c             	mov    0xc(%ebp),%ecx
  800feb:	89 da                	mov    %ebx,%edx
	char *ret;

	ret = dst;
	while ((*dst++ = *src++) != '\0')
  800fed:	0f b6 01             	movzbl (%ecx),%eax
  800ff0:	88 02                	mov    %al,(%edx)
  800ff2:	83 c2 01             	add    $0x1,%edx
  800ff5:	83 c1 01             	add    $0x1,%ecx
  800ff8:	84 c0                	test   %al,%al
  800ffa:	75 f1                	jne    800fed <strcpy+0xc>
		/* do nothing */;
	return ret;
}
  800ffc:	89 d8                	mov    %ebx,%eax
  800ffe:	5b                   	pop    %ebx
  800fff:	5d                   	pop    %ebp
  801000:	c3                   	ret    

00801001 <strncpy>:

char *
strncpy(char *dst, const char *src, size_t size) {
  801001:	55                   	push   %ebp
  801002:	89 e5                	mov    %esp,%ebp
  801004:	57                   	push   %edi
  801005:	56                   	push   %esi
  801006:	53                   	push   %ebx
  801007:	8b 7d 08             	mov    0x8(%ebp),%edi
  80100a:	8b 4d 0c             	mov    0xc(%ebp),%ecx
  80100d:	8b 75 10             	mov    0x10(%ebp),%esi
	size_t i;
	char *ret;

	ret = dst;
	for (i = 0; i < size; i++) {
  801010:	85 f6                	test   %esi,%esi
  801012:	74 1c                	je     801030 <strncpy+0x2f>
  801014:	89 fa                	mov    %edi,%edx
  801016:	bb 00 00 00 00       	mov    $0x0,%ebx
		*dst++ = *src;
  80101b:	0f b6 01             	movzbl (%ecx),%eax
  80101e:	88 02                	mov    %al,(%edx)
  801020:	83 c2 01             	add    $0x1,%edx
		// If strlen(src) < size, null-pad 'dst' out to 'size' chars
		if (*src != '\0')
			src++;
  801023:	80 39 01             	cmpb   $0x1,(%ecx)
  801026:	83 d9 ff             	sbb    $0xffffffff,%ecx
strncpy(char *dst, const char *src, size_t size) {
	size_t i;
	char *ret;

	ret = dst;
	for (i = 0; i < size; i++) {
  801029:	83 c3 01             	add    $0x1,%ebx
  80102c:	39 f3                	cmp    %esi,%ebx
  80102e:	75 eb                	jne    80101b <strncpy+0x1a>
		// If strlen(src) < size, null-pad 'dst' out to 'size' chars
		if (*src != '\0')
			src++;
	}
	return ret;
}
  801030:	89 f8                	mov    %edi,%eax
  801032:	5b                   	pop    %ebx
  801033:	5e                   	pop    %esi
  801034:	5f                   	pop    %edi
  801035:	5d                   	pop    %ebp
  801036:	c3                   	ret    

00801037 <strlcpy>:

size_t
strlcpy(char *dst, const char *src, size_t size)
{
  801037:	55                   	push   %ebp
  801038:	89 e5                	mov    %esp,%ebp
  80103a:	56                   	push   %esi
  80103b:	53                   	push   %ebx
  80103c:	8b 75 08             	mov    0x8(%ebp),%esi
  80103f:	8b 4d 0c             	mov    0xc(%ebp),%ecx
  801042:	8b 55 10             	mov    0x10(%ebp),%edx
	char *dst_in;

	dst_in = dst;
	if (size > 0) {
  801045:	89 f0                	mov    %esi,%eax
  801047:	85 d2                	test   %edx,%edx
  801049:	74 2c                	je     801077 <strlcpy+0x40>
		while (--size > 0 && *src != '\0')
  80104b:	89 d3                	mov    %edx,%ebx
  80104d:	83 eb 01             	sub    $0x1,%ebx
  801050:	74 20                	je     801072 <strlcpy+0x3b>
  801052:	0f b6 11             	movzbl (%ecx),%edx
  801055:	84 d2                	test   %dl,%dl
  801057:	74 19                	je     801072 <strlcpy+0x3b>
  801059:	89 f0                	mov    %esi,%eax
			*dst++ = *src++;
  80105b:	88 10                	mov    %dl,(%eax)
  80105d:	83 c0 01             	add    $0x1,%eax
{
	char *dst_in;

	dst_in = dst;
	if (size > 0) {
		while (--size > 0 && *src != '\0')
  801060:	83 eb 01             	sub    $0x1,%ebx
  801063:	74 0f                	je     801074 <strlcpy+0x3d>
  801065:	0f b6 51 01          	movzbl 0x1(%ecx),%edx
  801069:	83 c1 01             	add    $0x1,%ecx
  80106c:	84 d2                	test   %dl,%dl
  80106e:	74 04                	je     801074 <strlcpy+0x3d>
  801070:	eb e9                	jmp    80105b <strlcpy+0x24>
  801072:	89 f0                	mov    %esi,%eax
			*dst++ = *src++;
		*dst = '\0';
  801074:	c6 00 00             	movb   $0x0,(%eax)
  801077:	29 f0                	sub    %esi,%eax
	}
	return dst - dst_in;
}
  801079:	5b                   	pop    %ebx
  80107a:	5e                   	pop    %esi
  80107b:	5d                   	pop    %ebp
  80107c:	c3                   	ret    

0080107d <pstrcpy>:
//i386-disassember Lab3:your code here pstrcpy()
void pstrcpy(char *buf, int buf_size, const char *str)
{   
  80107d:	55                   	push   %ebp
  80107e:	89 e5                	mov    %esp,%ebp
  801080:	56                   	push   %esi
  801081:	53                   	push   %ebx
  801082:	8b 75 08             	mov    0x8(%ebp),%esi
  801085:	8b 45 0c             	mov    0xc(%ebp),%eax
  801088:	8b 55 10             	mov    0x10(%ebp),%edx
    int c;
    char *q = buf;

    if (buf_size <= 0)
  80108b:	85 c0                	test   %eax,%eax
  80108d:	7e 2e                	jle    8010bd <pstrcpy+0x40>
        return;

    for(;;) {
        c = *str++;
  80108f:	0f b6 0a             	movzbl (%edx),%ecx
        if (c == 0 || q >= buf + buf_size - 1)
  801092:	84 c9                	test   %cl,%cl
  801094:	74 22                	je     8010b8 <pstrcpy+0x3b>
  801096:	8d 5c 06 ff          	lea    -0x1(%esi,%eax,1),%ebx
  80109a:	89 f0                	mov    %esi,%eax
  80109c:	39 de                	cmp    %ebx,%esi
  80109e:	72 09                	jb     8010a9 <pstrcpy+0x2c>
  8010a0:	eb 16                	jmp    8010b8 <pstrcpy+0x3b>
  8010a2:	83 c2 01             	add    $0x1,%edx
  8010a5:	39 d8                	cmp    %ebx,%eax
  8010a7:	73 11                	jae    8010ba <pstrcpy+0x3d>
            break;
        *q++ = c;
  8010a9:	88 08                	mov    %cl,(%eax)
  8010ab:	83 c0 01             	add    $0x1,%eax

    if (buf_size <= 0)
        return;

    for(;;) {
        c = *str++;
  8010ae:	0f b6 4a 01          	movzbl 0x1(%edx),%ecx
        if (c == 0 || q >= buf + buf_size - 1)
  8010b2:	84 c9                	test   %cl,%cl
  8010b4:	75 ec                	jne    8010a2 <pstrcpy+0x25>
  8010b6:	eb 02                	jmp    8010ba <pstrcpy+0x3d>
  8010b8:	89 f0                	mov    %esi,%eax
            break;
        *q++ = c;
    }
    *q = '\0';
  8010ba:	c6 00 00             	movb   $0x0,(%eax)
}
  8010bd:	5b                   	pop    %ebx
  8010be:	5e                   	pop    %esi
  8010bf:	5d                   	pop    %ebp
  8010c0:	c3                   	ret    

008010c1 <strcmp>:
int
strcmp(const char *p, const char *q)
{
  8010c1:	55                   	push   %ebp
  8010c2:	89 e5                	mov    %esp,%ebp
  8010c4:	8b 55 08             	mov    0x8(%ebp),%edx
  8010c7:	8b 4d 0c             	mov    0xc(%ebp),%ecx
	while (*p && *p == *q)
  8010ca:	0f b6 02             	movzbl (%edx),%eax
  8010cd:	84 c0                	test   %al,%al
  8010cf:	74 16                	je     8010e7 <strcmp+0x26>
  8010d1:	3a 01                	cmp    (%ecx),%al
  8010d3:	75 12                	jne    8010e7 <strcmp+0x26>
		p++, q++;
  8010d5:	83 c1 01             	add    $0x1,%ecx
    *q = '\0';
}
int
strcmp(const char *p, const char *q)
{
	while (*p && *p == *q)
  8010d8:	0f b6 42 01          	movzbl 0x1(%edx),%eax
  8010dc:	84 c0                	test   %al,%al
  8010de:	74 07                	je     8010e7 <strcmp+0x26>
  8010e0:	83 c2 01             	add    $0x1,%edx
  8010e3:	3a 01                	cmp    (%ecx),%al
  8010e5:	74 ee                	je     8010d5 <strcmp+0x14>
  8010e7:	0f b6 c0             	movzbl %al,%eax
  8010ea:	0f b6 11             	movzbl (%ecx),%edx
  8010ed:	29 d0                	sub    %edx,%eax
		p++, q++;
	return (int) ((unsigned char) *p - (unsigned char) *q);
}
  8010ef:	5d                   	pop    %ebp
  8010f0:	c3                   	ret    

008010f1 <strncmp>:

int
strncmp(const char *p, const char *q, size_t n)
{
  8010f1:	55                   	push   %ebp
  8010f2:	89 e5                	mov    %esp,%ebp
  8010f4:	53                   	push   %ebx
  8010f5:	8b 4d 08             	mov    0x8(%ebp),%ecx
  8010f8:	8b 5d 0c             	mov    0xc(%ebp),%ebx
  8010fb:	8b 55 10             	mov    0x10(%ebp),%edx
	while (n > 0 && *p && *p == *q)
  8010fe:	85 d2                	test   %edx,%edx
  801100:	74 2d                	je     80112f <strncmp+0x3e>
  801102:	0f b6 01             	movzbl (%ecx),%eax
  801105:	84 c0                	test   %al,%al
  801107:	74 1a                	je     801123 <strncmp+0x32>
  801109:	3a 03                	cmp    (%ebx),%al
  80110b:	75 16                	jne    801123 <strncmp+0x32>
  80110d:	83 ea 01             	sub    $0x1,%edx
  801110:	74 1d                	je     80112f <strncmp+0x3e>
		n--, p++, q++;
  801112:	83 c1 01             	add    $0x1,%ecx
  801115:	83 c3 01             	add    $0x1,%ebx
}

int
strncmp(const char *p, const char *q, size_t n)
{
	while (n > 0 && *p && *p == *q)
  801118:	0f b6 01             	movzbl (%ecx),%eax
  80111b:	84 c0                	test   %al,%al
  80111d:	74 04                	je     801123 <strncmp+0x32>
  80111f:	3a 03                	cmp    (%ebx),%al
  801121:	74 ea                	je     80110d <strncmp+0x1c>
		n--, p++, q++;
	if (n == 0)
		return 0;
	else
		return (int) ((unsigned char) *p - (unsigned char) *q);
  801123:	0f b6 11             	movzbl (%ecx),%edx
  801126:	0f b6 03             	movzbl (%ebx),%eax
  801129:	29 c2                	sub    %eax,%edx
  80112b:	89 d0                	mov    %edx,%eax
  80112d:	eb 05                	jmp    801134 <strncmp+0x43>
  80112f:	b8 00 00 00 00       	mov    $0x0,%eax
}
  801134:	5b                   	pop    %ebx
  801135:	5d                   	pop    %ebp
  801136:	c3                   	ret    

00801137 <strchr>:

// Return a pointer to the first occurrence of 'c' in 's',
// or a null pointer if the string has no 'c'.
char *
strchr(const char *s, char c)
{
  801137:	55                   	push   %ebp
  801138:	89 e5                	mov    %esp,%ebp
  80113a:	8b 45 08             	mov    0x8(%ebp),%eax
  80113d:	0f b6 4d 0c          	movzbl 0xc(%ebp),%ecx
	for (; *s; s++)
  801141:	0f b6 10             	movzbl (%eax),%edx
  801144:	84 d2                	test   %dl,%dl
  801146:	74 14                	je     80115c <strchr+0x25>
		if (*s == c)
  801148:	38 ca                	cmp    %cl,%dl
  80114a:	75 06                	jne    801152 <strchr+0x1b>
  80114c:	eb 13                	jmp    801161 <strchr+0x2a>
  80114e:	38 ca                	cmp    %cl,%dl
  801150:	74 0f                	je     801161 <strchr+0x2a>
// Return a pointer to the first occurrence of 'c' in 's',
// or a null pointer if the string has no 'c'.
char *
strchr(const char *s, char c)
{
	for (; *s; s++)
  801152:	83 c0 01             	add    $0x1,%eax
  801155:	0f b6 10             	movzbl (%eax),%edx
  801158:	84 d2                	test   %dl,%dl
  80115a:	75 f2                	jne    80114e <strchr+0x17>
  80115c:	b8 00 00 00 00       	mov    $0x0,%eax
		if (*s == c)
			return (char *) s;
	return 0;
}
  801161:	5d                   	pop    %ebp
  801162:	c3                   	ret    

00801163 <strfind>:

// Return a pointer to the first occurrence of 'c' in 's',
// or a pointer to the string-ending null character if the string has no 'c'.
char *
strfind(const char *s, char c)
{
  801163:	55                   	push   %ebp
  801164:	89 e5                	mov    %esp,%ebp
  801166:	8b 45 08             	mov    0x8(%ebp),%eax
  801169:	0f b6 4d 0c          	movzbl 0xc(%ebp),%ecx
	for (; *s; s++)
  80116d:	0f b6 10             	movzbl (%eax),%edx
  801170:	84 d2                	test   %dl,%dl
  801172:	74 18                	je     80118c <strfind+0x29>
		if (*s == c)
  801174:	38 ca                	cmp    %cl,%dl
  801176:	75 0a                	jne    801182 <strfind+0x1f>
  801178:	eb 12                	jmp    80118c <strfind+0x29>
  80117a:	38 ca                	cmp    %cl,%dl
  80117c:	8d 74 26 00          	lea    0x0(%esi),%esi
  801180:	74 0a                	je     80118c <strfind+0x29>
// Return a pointer to the first occurrence of 'c' in 's',
// or a pointer to the string-ending null character if the string has no 'c'.
char *
strfind(const char *s, char c)
{
	for (; *s; s++)
  801182:	83 c0 01             	add    $0x1,%eax
  801185:	0f b6 10             	movzbl (%eax),%edx
  801188:	84 d2                	test   %dl,%dl
  80118a:	75 ee                	jne    80117a <strfind+0x17>
		if (*s == c)
			break;
	return (char *) s;
}
  80118c:	5d                   	pop    %ebp
  80118d:	c3                   	ret    

0080118e <memset>:

#if ASM
void *
memset(void *v, int c, size_t n)
{
  80118e:	55                   	push   %ebp
  80118f:	89 e5                	mov    %esp,%ebp
  801191:	83 ec 08             	sub    $0x8,%esp
  801194:	89 1c 24             	mov    %ebx,(%esp)
  801197:	89 7c 24 04          	mov    %edi,0x4(%esp)
  80119b:	8b 7d 08             	mov    0x8(%ebp),%edi
  80119e:	8b 5d 10             	mov    0x10(%ebp),%ebx
	char *p;

	if (n == 0)
  8011a1:	85 db                	test   %ebx,%ebx
  8011a3:	74 36                	je     8011db <memset+0x4d>
		return v;
	if ((int)v%4 == 0 && n%4 == 0) {
  8011a5:	f7 c7 03 00 00 00    	test   $0x3,%edi
  8011ab:	75 26                	jne    8011d3 <memset+0x45>
  8011ad:	f6 c3 03             	test   $0x3,%bl
  8011b0:	75 21                	jne    8011d3 <memset+0x45>
		c &= 0xFF;
  8011b2:	0f b6 55 0c          	movzbl 0xc(%ebp),%edx
		c = (c<<24)|(c<<16)|(c<<8)|c;
		asm volatile("cld; rep stosl\n"
  8011b6:	89 d0                	mov    %edx,%eax
  8011b8:	c1 e0 18             	shl    $0x18,%eax
  8011bb:	89 d1                	mov    %edx,%ecx
  8011bd:	c1 e1 10             	shl    $0x10,%ecx
  8011c0:	09 c8                	or     %ecx,%eax
  8011c2:	09 d0                	or     %edx,%eax
  8011c4:	c1 e2 08             	shl    $0x8,%edx
  8011c7:	09 d0                	or     %edx,%eax
  8011c9:	89 d9                	mov    %ebx,%ecx
  8011cb:	c1 e9 02             	shr    $0x2,%ecx
  8011ce:	fc                   	cld    
  8011cf:	f3 ab                	rep stos %eax,%es:(%edi)
  8011d1:	eb 08                	jmp    8011db <memset+0x4d>
			:: "D" (v), "a" (c), "c" (n/4)
			: "cc", "memory");
	} else
		asm volatile("cld; rep stosb\n"
  8011d3:	8b 45 0c             	mov    0xc(%ebp),%eax
  8011d6:	89 d9                	mov    %ebx,%ecx
  8011d8:	fc                   	cld    
  8011d9:	f3 aa                	rep stos %al,%es:(%edi)
			:: "D" (v), "a" (c), "c" (n)
			: "cc", "memory");
	return v;
}
  8011db:	89 f8                	mov    %edi,%eax
  8011dd:	8b 1c 24             	mov    (%esp),%ebx
  8011e0:	8b 7c 24 04          	mov    0x4(%esp),%edi
  8011e4:	89 ec                	mov    %ebp,%esp
  8011e6:	5d                   	pop    %ebp
  8011e7:	c3                   	ret    

008011e8 <memmove>:

void *
memmove(void *dst, const void *src, size_t n)
{
  8011e8:	55                   	push   %ebp
  8011e9:	89 e5                	mov    %esp,%ebp
  8011eb:	83 ec 08             	sub    $0x8,%esp
  8011ee:	89 34 24             	mov    %esi,(%esp)
  8011f1:	89 7c 24 04          	mov    %edi,0x4(%esp)
  8011f5:	8b 45 08             	mov    0x8(%ebp),%eax
  8011f8:	8b 4d 10             	mov    0x10(%ebp),%ecx
	const char *s;
	char *d;
	
	s = src;
  8011fb:	8b 75 0c             	mov    0xc(%ebp),%esi
	d = dst;
  8011fe:	89 c7                	mov    %eax,%edi
	if (s < d && s + n > d) {
  801200:	39 c6                	cmp    %eax,%esi
  801202:	73 38                	jae    80123c <memmove+0x54>
  801204:	8d 14 0e             	lea    (%esi,%ecx,1),%edx
  801207:	39 d0                	cmp    %edx,%eax
  801209:	73 31                	jae    80123c <memmove+0x54>
		s += n;
		d += n;
  80120b:	8d 34 08             	lea    (%eax,%ecx,1),%esi
		if ((int)s%4 == 0 && (int)d%4 == 0 && n%4 == 0)
  80120e:	f6 c2 03             	test   $0x3,%dl
  801211:	75 1d                	jne    801230 <memmove+0x48>
  801213:	f7 c6 03 00 00 00    	test   $0x3,%esi
  801219:	75 15                	jne    801230 <memmove+0x48>
  80121b:	f6 c1 03             	test   $0x3,%cl
  80121e:	66 90                	xchg   %ax,%ax
  801220:	75 0e                	jne    801230 <memmove+0x48>
			asm volatile("std; rep movsl\n"
  801222:	8d 7e fc             	lea    -0x4(%esi),%edi
  801225:	8d 72 fc             	lea    -0x4(%edx),%esi
  801228:	c1 e9 02             	shr    $0x2,%ecx
  80122b:	fd                   	std    
  80122c:	f3 a5                	rep movsl %ds:(%esi),%es:(%edi)
  80122e:	eb 09                	jmp    801239 <memmove+0x51>
				:: "D" (d-4), "S" (s-4), "c" (n/4) : "cc", "memory");
		else
			asm volatile("std; rep movsb\n"
  801230:	8d 7e ff             	lea    -0x1(%esi),%edi
  801233:	8d 72 ff             	lea    -0x1(%edx),%esi
  801236:	fd                   	std    
  801237:	f3 a4                	rep movsb %ds:(%esi),%es:(%edi)
				:: "D" (d-1), "S" (s-1), "c" (n) : "cc", "memory");
		// Some versions of GCC rely on DF being clear
		asm volatile("cld" ::: "cc");
  801239:	fc                   	cld    
  80123a:	eb 21                	jmp    80125d <memmove+0x75>
	} else {
		if ((int)s%4 == 0 && (int)d%4 == 0 && n%4 == 0)
  80123c:	f7 c6 03 00 00 00    	test   $0x3,%esi
  801242:	75 16                	jne    80125a <memmove+0x72>
  801244:	f7 c7 03 00 00 00    	test   $0x3,%edi
  80124a:	75 0e                	jne    80125a <memmove+0x72>
  80124c:	f6 c1 03             	test   $0x3,%cl
  80124f:	90                   	nop    
  801250:	75 08                	jne    80125a <memmove+0x72>
			asm volatile("cld; rep movsl\n"
  801252:	c1 e9 02             	shr    $0x2,%ecx
  801255:	fc                   	cld    
  801256:	f3 a5                	rep movsl %ds:(%esi),%es:(%edi)
  801258:	eb 03                	jmp    80125d <memmove+0x75>
				:: "D" (d), "S" (s), "c" (n/4) : "cc", "memory");
		else
			asm volatile("cld; rep movsb\n"
  80125a:	fc                   	cld    
  80125b:	f3 a4                	rep movsb %ds:(%esi),%es:(%edi)
				:: "D" (d), "S" (s), "c" (n) : "cc", "memory");
	}
	return dst;
}
  80125d:	8b 34 24             	mov    (%esp),%esi
  801260:	8b 7c 24 04          	mov    0x4(%esp),%edi
  801264:	89 ec                	mov    %ebp,%esp
  801266:	5d                   	pop    %ebp
  801267:	c3                   	ret    

00801268 <memcpy>:

/* sigh - gcc emits references to this for structure assignments! */
/* it is *not* prototyped in inc/string.h - do not use directly. */
void *
memcpy(void *dst, void *src, size_t n)
{
  801268:	55                   	push   %ebp
  801269:	89 e5                	mov    %esp,%ebp
  80126b:	83 ec 0c             	sub    $0xc,%esp
	return memmove(dst, src, n);
  80126e:	8b 45 10             	mov    0x10(%ebp),%eax
  801271:	89 44 24 08          	mov    %eax,0x8(%esp)
  801275:	8b 45 0c             	mov    0xc(%ebp),%eax
  801278:	89 44 24 04          	mov    %eax,0x4(%esp)
  80127c:	8b 45 08             	mov    0x8(%ebp),%eax
  80127f:	89 04 24             	mov    %eax,(%esp)
  801282:	e8 61 ff ff ff       	call   8011e8 <memmove>
}
  801287:	c9                   	leave  
  801288:	c3                   	ret    

00801289 <memcmp>:

int
memcmp(const void *v1, const void *v2, size_t n)
{
  801289:	55                   	push   %ebp
  80128a:	89 e5                	mov    %esp,%ebp
  80128c:	57                   	push   %edi
  80128d:	56                   	push   %esi
  80128e:	53                   	push   %ebx
  80128f:	83 ec 04             	sub    $0x4,%esp
  801292:	8b 45 08             	mov    0x8(%ebp),%eax
  801295:	8b 4d 0c             	mov    0xc(%ebp),%ecx
	const uint8_t *s1 = (const uint8_t *) v1;
	const uint8_t *s2 = (const uint8_t *) v2;

	while (n-- > 0) {
  801298:	8b 55 10             	mov    0x10(%ebp),%edx
  80129b:	83 ea 01             	sub    $0x1,%edx
  80129e:	83 fa ff             	cmp    $0xffffffff,%edx
  8012a1:	74 47                	je     8012ea <memcmp+0x61>
		if (*s1 != *s2)
  8012a3:	0f b6 30             	movzbl (%eax),%esi
  8012a6:	0f b6 39             	movzbl (%ecx),%edi
			return (int) *s1 - (int) *s2;
  8012a9:	89 45 f0             	mov    %eax,-0x10(%ebp)
{
	const uint8_t *s1 = (const uint8_t *) v1;
	const uint8_t *s2 = (const uint8_t *) v2;

	while (n-- > 0) {
		if (*s1 != *s2)
  8012ac:	89 f0                	mov    %esi,%eax
  8012ae:	89 fb                	mov    %edi,%ebx
  8012b0:	38 d8                	cmp    %bl,%al
  8012b2:	74 2e                	je     8012e2 <memcmp+0x59>
  8012b4:	eb 1c                	jmp    8012d2 <memcmp+0x49>
  8012b6:	8b 45 f0             	mov    -0x10(%ebp),%eax
  8012b9:	0f b6 70 01          	movzbl 0x1(%eax),%esi
  8012bd:	0f b6 79 01          	movzbl 0x1(%ecx),%edi
  8012c1:	83 c0 01             	add    $0x1,%eax
  8012c4:	89 45 f0             	mov    %eax,-0x10(%ebp)
  8012c7:	83 c1 01             	add    $0x1,%ecx
  8012ca:	89 f3                	mov    %esi,%ebx
  8012cc:	89 f8                	mov    %edi,%eax
  8012ce:	38 c3                	cmp    %al,%bl
  8012d0:	74 10                	je     8012e2 <memcmp+0x59>
			return (int) *s1 - (int) *s2;
  8012d2:	89 f1                	mov    %esi,%ecx
  8012d4:	0f b6 d1             	movzbl %cl,%edx
  8012d7:	89 fb                	mov    %edi,%ebx
  8012d9:	0f b6 c3             	movzbl %bl,%eax
  8012dc:	29 c2                	sub    %eax,%edx
  8012de:	89 d0                	mov    %edx,%eax
  8012e0:	eb 0d                	jmp    8012ef <memcmp+0x66>
memcmp(const void *v1, const void *v2, size_t n)
{
	const uint8_t *s1 = (const uint8_t *) v1;
	const uint8_t *s2 = (const uint8_t *) v2;

	while (n-- > 0) {
  8012e2:	83 ea 01             	sub    $0x1,%edx
  8012e5:	83 fa ff             	cmp    $0xffffffff,%edx
  8012e8:	75 cc                	jne    8012b6 <memcmp+0x2d>
  8012ea:	b8 00 00 00 00       	mov    $0x0,%eax
			return (int) *s1 - (int) *s2;
		s1++, s2++;
	}

	return 0;
}
  8012ef:	83 c4 04             	add    $0x4,%esp
  8012f2:	5b                   	pop    %ebx
  8012f3:	5e                   	pop    %esi
  8012f4:	5f                   	pop    %edi
  8012f5:	5d                   	pop    %ebp
  8012f6:	c3                   	ret    

008012f7 <memfind>:

void *
memfind(const void *s, int c, size_t n)
{
  8012f7:	55                   	push   %ebp
  8012f8:	89 e5                	mov    %esp,%ebp
  8012fa:	8b 45 08             	mov    0x8(%ebp),%eax
	const void *ends = (const char *) s + n;
  8012fd:	89 c1                	mov    %eax,%ecx
  8012ff:	03 4d 10             	add    0x10(%ebp),%ecx
	for (; s < ends; s++)
  801302:	39 c8                	cmp    %ecx,%eax
  801304:	73 15                	jae    80131b <memfind+0x24>
		if (*(const unsigned char *) s == (unsigned char) c)
  801306:	0f b6 55 0c          	movzbl 0xc(%ebp),%edx
  80130a:	38 10                	cmp    %dl,(%eax)
  80130c:	75 06                	jne    801314 <memfind+0x1d>
  80130e:	eb 0b                	jmp    80131b <memfind+0x24>
  801310:	38 10                	cmp    %dl,(%eax)
  801312:	74 07                	je     80131b <memfind+0x24>

void *
memfind(const void *s, int c, size_t n)
{
	const void *ends = (const char *) s + n;
	for (; s < ends; s++)
  801314:	83 c0 01             	add    $0x1,%eax
  801317:	39 c8                	cmp    %ecx,%eax
  801319:	75 f5                	jne    801310 <memfind+0x19>
		if (*(const unsigned char *) s == (unsigned char) c)
			break;
	return (void *) s;
}
  80131b:	5d                   	pop    %ebp
  80131c:	8d 74 26 00          	lea    0x0(%esi),%esi
  801320:	c3                   	ret    

00801321 <strtol>:

long
strtol(const char *s, char **endptr, int base)
{
  801321:	55                   	push   %ebp
  801322:	89 e5                	mov    %esp,%ebp
  801324:	57                   	push   %edi
  801325:	56                   	push   %esi
  801326:	53                   	push   %ebx
  801327:	83 ec 04             	sub    $0x4,%esp
  80132a:	8b 4d 08             	mov    0x8(%ebp),%ecx
  80132d:	8b 75 10             	mov    0x10(%ebp),%esi
	int neg = 0;
	long val = 0;

	// gobble initial whitespace
	while (*s == ' ' || *s == '\t')
  801330:	0f b6 01             	movzbl (%ecx),%eax
  801333:	3c 20                	cmp    $0x20,%al
  801335:	74 04                	je     80133b <strtol+0x1a>
  801337:	3c 09                	cmp    $0x9,%al
  801339:	75 0e                	jne    801349 <strtol+0x28>
		s++;
  80133b:	83 c1 01             	add    $0x1,%ecx
{
	int neg = 0;
	long val = 0;

	// gobble initial whitespace
	while (*s == ' ' || *s == '\t')
  80133e:	0f b6 01             	movzbl (%ecx),%eax
  801341:	3c 20                	cmp    $0x20,%al
  801343:	74 f6                	je     80133b <strtol+0x1a>
  801345:	3c 09                	cmp    $0x9,%al
  801347:	74 f2                	je     80133b <strtol+0x1a>
		s++;

	// plus/minus sign
	if (*s == '+')
  801349:	3c 2b                	cmp    $0x2b,%al
  80134b:	75 0c                	jne    801359 <strtol+0x38>
		s++;
  80134d:	83 c1 01             	add    $0x1,%ecx
  801350:	c7 45 f0 00 00 00 00 	movl   $0x0,-0x10(%ebp)
  801357:	eb 15                	jmp    80136e <strtol+0x4d>
	else if (*s == '-')
  801359:	c7 45 f0 00 00 00 00 	movl   $0x0,-0x10(%ebp)
  801360:	3c 2d                	cmp    $0x2d,%al
  801362:	75 0a                	jne    80136e <strtol+0x4d>
		s++, neg = 1;
  801364:	83 c1 01             	add    $0x1,%ecx
  801367:	c7 45 f0 01 00 00 00 	movl   $0x1,-0x10(%ebp)

	// hex or octal base prefix
	if ((base == 0 || base == 16) && (s[0] == '0' && s[1] == 'x'))
  80136e:	85 f6                	test   %esi,%esi
  801370:	0f 94 c0             	sete   %al
  801373:	74 05                	je     80137a <strtol+0x59>
  801375:	83 fe 10             	cmp    $0x10,%esi
  801378:	75 18                	jne    801392 <strtol+0x71>
  80137a:	80 39 30             	cmpb   $0x30,(%ecx)
  80137d:	75 13                	jne    801392 <strtol+0x71>
  80137f:	80 79 01 78          	cmpb   $0x78,0x1(%ecx)
  801383:	75 0d                	jne    801392 <strtol+0x71>
		s += 2, base = 16;
  801385:	83 c1 02             	add    $0x2,%ecx
  801388:	be 10 00 00 00       	mov    $0x10,%esi
  80138d:	8d 76 00             	lea    0x0(%esi),%esi
  801390:	eb 1b                	jmp    8013ad <strtol+0x8c>
	else if (base == 0 && s[0] == '0')
  801392:	85 f6                	test   %esi,%esi
  801394:	75 0e                	jne    8013a4 <strtol+0x83>
  801396:	80 39 30             	cmpb   $0x30,(%ecx)
  801399:	75 09                	jne    8013a4 <strtol+0x83>
		s++, base = 8;
  80139b:	83 c1 01             	add    $0x1,%ecx
  80139e:	66 be 08 00          	mov    $0x8,%si
  8013a2:	eb 09                	jmp    8013ad <strtol+0x8c>
	else if (base == 0)
  8013a4:	84 c0                	test   %al,%al
  8013a6:	74 05                	je     8013ad <strtol+0x8c>
  8013a8:	be 0a 00 00 00       	mov    $0xa,%esi
  8013ad:	bf 00 00 00 00       	mov    $0x0,%edi

	// digits
	while (1) {
		int dig;

		if (*s >= '0' && *s <= '9')
  8013b2:	0f b6 11             	movzbl (%ecx),%edx
  8013b5:	89 d3                	mov    %edx,%ebx
  8013b7:	8d 42 d0             	lea    -0x30(%edx),%eax
  8013ba:	3c 09                	cmp    $0x9,%al
  8013bc:	77 08                	ja     8013c6 <strtol+0xa5>
			dig = *s - '0';
  8013be:	0f be c2             	movsbl %dl,%eax
  8013c1:	8d 50 d0             	lea    -0x30(%eax),%edx
  8013c4:	eb 1c                	jmp    8013e2 <strtol+0xc1>
		else if (*s >= 'a' && *s <= 'z')
  8013c6:	8d 43 9f             	lea    -0x61(%ebx),%eax
  8013c9:	3c 19                	cmp    $0x19,%al
  8013cb:	77 08                	ja     8013d5 <strtol+0xb4>
			dig = *s - 'a' + 10;
  8013cd:	0f be c2             	movsbl %dl,%eax
  8013d0:	8d 50 a9             	lea    -0x57(%eax),%edx
  8013d3:	eb 0d                	jmp    8013e2 <strtol+0xc1>
		else if (*s >= 'A' && *s <= 'Z')
  8013d5:	8d 43 bf             	lea    -0x41(%ebx),%eax
  8013d8:	3c 19                	cmp    $0x19,%al
  8013da:	77 17                	ja     8013f3 <strtol+0xd2>
			dig = *s - 'A' + 10;
  8013dc:	0f be c2             	movsbl %dl,%eax
  8013df:	8d 50 c9             	lea    -0x37(%eax),%edx
		else
			break;
		if (dig >= base)
  8013e2:	39 f2                	cmp    %esi,%edx
  8013e4:	7d 0d                	jge    8013f3 <strtol+0xd2>
			break;
		s++, val = (val * base) + dig;
  8013e6:	83 c1 01             	add    $0x1,%ecx
  8013e9:	89 f8                	mov    %edi,%eax
  8013eb:	0f af c6             	imul   %esi,%eax
  8013ee:	8d 3c 02             	lea    (%edx,%eax,1),%edi
  8013f1:	eb bf                	jmp    8013b2 <strtol+0x91>
		// we don't properly detect overflow!
	}
  8013f3:	89 f8                	mov    %edi,%eax

	if (endptr)
  8013f5:	83 7d 0c 00          	cmpl   $0x0,0xc(%ebp)
  8013f9:	74 05                	je     801400 <strtol+0xdf>
		*endptr = (char *) s;
  8013fb:	8b 55 0c             	mov    0xc(%ebp),%edx
  8013fe:	89 0a                	mov    %ecx,(%edx)
	return (neg ? -val : val);
  801400:	83 7d f0 00          	cmpl   $0x0,-0x10(%ebp)
  801404:	74 04                	je     80140a <strtol+0xe9>
  801406:	89 c7                	mov    %eax,%edi
  801408:	f7 df                	neg    %edi
}
  80140a:	89 f8                	mov    %edi,%eax
  80140c:	83 c4 04             	add    $0x4,%esp
  80140f:	5b                   	pop    %ebx
  801410:	5e                   	pop    %esi
  801411:	5f                   	pop    %edi
  801412:	5d                   	pop    %ebp
  801413:	c3                   	ret    

00801414 <sys_cgetc>:
	syscall(SYS_cputs, 0, (uint32_t)s, len, 0, 0, 0);
}

int
sys_cgetc(void)
{
  801414:	55                   	push   %ebp
  801415:	89 e5                	mov    %esp,%ebp
  801417:	83 ec 0c             	sub    $0xc,%esp
  80141a:	89 1c 24             	mov    %ebx,(%esp)
  80141d:	89 74 24 04          	mov    %esi,0x4(%esp)
  801421:	89 7c 24 08          	mov    %edi,0x8(%esp)
	// 
	// The last clause tells the assembler that this can
	// potentially change the condition codes and arbitrary
	// memory locations.

	asm volatile("int %1\n"
  801425:	b8 01 00 00 00       	mov    $0x1,%eax
  80142a:	bf 00 00 00 00       	mov    $0x0,%edi
  80142f:	89 fa                	mov    %edi,%edx
  801431:	89 f9                	mov    %edi,%ecx
  801433:	89 fb                	mov    %edi,%ebx
  801435:	89 fe                	mov    %edi,%esi
  801437:	cd 30                	int    $0x30

int
sys_cgetc(void)
{
	return syscall(SYS_cgetc, 0, 0, 0, 0, 0, 0);
}
  801439:	8b 1c 24             	mov    (%esp),%ebx
  80143c:	8b 74 24 04          	mov    0x4(%esp),%esi
  801440:	8b 7c 24 08          	mov    0x8(%esp),%edi
  801444:	89 ec                	mov    %ebp,%esp
  801446:	5d                   	pop    %ebp
  801447:	c3                   	ret    

00801448 <sys_cputs>:
	return ret;
}

void
sys_cputs(const char *s, size_t len)
{
  801448:	55                   	push   %ebp
  801449:	89 e5                	mov    %esp,%ebp
  80144b:	83 ec 0c             	sub    $0xc,%esp
  80144e:	89 1c 24             	mov    %ebx,(%esp)
  801451:	89 74 24 04          	mov    %esi,0x4(%esp)
  801455:	89 7c 24 08          	mov    %edi,0x8(%esp)
  801459:	8b 55 08             	mov    0x8(%ebp),%edx
  80145c:	8b 4d 0c             	mov    0xc(%ebp),%ecx
	// 
	// The last clause tells the assembler that this can
	// potentially change the condition codes and arbitrary
	// memory locations.

	asm volatile("int %1\n"
  80145f:	bf 00 00 00 00       	mov    $0x0,%edi
  801464:	89 f8                	mov    %edi,%eax
  801466:	89 fb                	mov    %edi,%ebx
  801468:	89 fe                	mov    %edi,%esi
  80146a:	cd 30                	int    $0x30

void
sys_cputs(const char *s, size_t len)
{
	syscall(SYS_cputs, 0, (uint32_t)s, len, 0, 0, 0);
}
  80146c:	8b 1c 24             	mov    (%esp),%ebx
  80146f:	8b 74 24 04          	mov    0x4(%esp),%esi
  801473:	8b 7c 24 08          	mov    0x8(%esp),%edi
  801477:	89 ec                	mov    %ebp,%esp
  801479:	5d                   	pop    %ebp
  80147a:	c3                   	ret    

0080147b <sys_time_msec>:
	return syscall(SYS_ipc_recv, 1, (uint32_t)dstva, 0, 0, 0, 0);
}

unsigned int
sys_time_msec(void)
{
  80147b:	55                   	push   %ebp
  80147c:	89 e5                	mov    %esp,%ebp
  80147e:	83 ec 0c             	sub    $0xc,%esp
  801481:	89 1c 24             	mov    %ebx,(%esp)
  801484:	89 74 24 04          	mov    %esi,0x4(%esp)
  801488:	89 7c 24 08          	mov    %edi,0x8(%esp)
	// 
	// The last clause tells the assembler that this can
	// potentially change the condition codes and arbitrary
	// memory locations.

	asm volatile("int %1\n"
  80148c:	b8 0e 00 00 00       	mov    $0xe,%eax
  801491:	bf 00 00 00 00       	mov    $0x0,%edi
  801496:	89 fa                	mov    %edi,%edx
  801498:	89 f9                	mov    %edi,%ecx
  80149a:	89 fb                	mov    %edi,%ebx
  80149c:	89 fe                	mov    %edi,%esi
  80149e:	cd 30                	int    $0x30

unsigned int
sys_time_msec(void)
{
	return (unsigned int) syscall(SYS_time_msec, 0, 0, 0, 0, 0, 0);
}
  8014a0:	8b 1c 24             	mov    (%esp),%ebx
  8014a3:	8b 74 24 04          	mov    0x4(%esp),%esi
  8014a7:	8b 7c 24 08          	mov    0x8(%esp),%edi
  8014ab:	89 ec                	mov    %ebp,%esp
  8014ad:	5d                   	pop    %ebp
  8014ae:	c3                   	ret    

008014af <sys_ipc_recv>:
	return syscall(SYS_ipc_try_send, 0, envid, value, (uint32_t) srcva, perm, 0);
}

int
sys_ipc_recv(void *dstva)
{
  8014af:	55                   	push   %ebp
  8014b0:	89 e5                	mov    %esp,%ebp
  8014b2:	83 ec 28             	sub    $0x28,%esp
  8014b5:	89 5d f4             	mov    %ebx,-0xc(%ebp)
  8014b8:	89 75 f8             	mov    %esi,-0x8(%ebp)
  8014bb:	89 7d fc             	mov    %edi,-0x4(%ebp)
  8014be:	8b 55 08             	mov    0x8(%ebp),%edx
	// 
	// The last clause tells the assembler that this can
	// potentially change the condition codes and arbitrary
	// memory locations.

	asm volatile("int %1\n"
  8014c1:	b8 0d 00 00 00       	mov    $0xd,%eax
  8014c6:	bf 00 00 00 00       	mov    $0x0,%edi
  8014cb:	89 f9                	mov    %edi,%ecx
  8014cd:	89 fb                	mov    %edi,%ebx
  8014cf:	89 fe                	mov    %edi,%esi
  8014d1:	cd 30                	int    $0x30
		  "b" (a3),
		  "D" (a4),
		  "S" (a5)
		: "cc", "memory");
	
	if(check && ret > 0)
  8014d3:	85 c0                	test   %eax,%eax
  8014d5:	7e 28                	jle    8014ff <sys_ipc_recv+0x50>
		panic("syscall %d returned %d (> 0)", num, ret);
  8014d7:	89 44 24 10          	mov    %eax,0x10(%esp)
  8014db:	c7 44 24 0c 0d 00 00 	movl   $0xd,0xc(%esp)
  8014e2:	00 
  8014e3:	c7 44 24 08 1f 26 81 	movl   $0x81261f,0x8(%esp)
  8014ea:	00 
  8014eb:	c7 44 24 04 23 00 00 	movl   $0x23,0x4(%esp)
  8014f2:	00 
  8014f3:	c7 04 24 3c 26 81 00 	movl   $0x81263c,(%esp)
  8014fa:	e8 ad f3 ff ff       	call   8008ac <_panic>

int
sys_ipc_recv(void *dstva)
{
	return syscall(SYS_ipc_recv, 1, (uint32_t)dstva, 0, 0, 0, 0);
}
  8014ff:	8b 5d f4             	mov    -0xc(%ebp),%ebx
  801502:	8b 75 f8             	mov    -0x8(%ebp),%esi
  801505:	8b 7d fc             	mov    -0x4(%ebp),%edi
  801508:	89 ec                	mov    %ebp,%esp
  80150a:	5d                   	pop    %ebp
  80150b:	c3                   	ret    

0080150c <sys_ipc_try_send>:
	return syscall(SYS_env_set_pgfault_upcall, 1, envid, (uint32_t) upcall, 0, 0, 0);
}

int
sys_ipc_try_send(envid_t envid, uint32_t value, void *srcva, int perm)
{
  80150c:	55                   	push   %ebp
  80150d:	89 e5                	mov    %esp,%ebp
  80150f:	83 ec 0c             	sub    $0xc,%esp
  801512:	89 1c 24             	mov    %ebx,(%esp)
  801515:	89 74 24 04          	mov    %esi,0x4(%esp)
  801519:	89 7c 24 08          	mov    %edi,0x8(%esp)
  80151d:	8b 55 08             	mov    0x8(%ebp),%edx
  801520:	8b 4d 0c             	mov    0xc(%ebp),%ecx
  801523:	8b 5d 10             	mov    0x10(%ebp),%ebx
  801526:	8b 7d 14             	mov    0x14(%ebp),%edi
	// 
	// The last clause tells the assembler that this can
	// potentially change the condition codes and arbitrary
	// memory locations.

	asm volatile("int %1\n"
  801529:	b8 0c 00 00 00       	mov    $0xc,%eax
  80152e:	be 00 00 00 00       	mov    $0x0,%esi
  801533:	cd 30                	int    $0x30

int
sys_ipc_try_send(envid_t envid, uint32_t value, void *srcva, int perm)
{
	return syscall(SYS_ipc_try_send, 0, envid, value, (uint32_t) srcva, perm, 0);
}
  801535:	8b 1c 24             	mov    (%esp),%ebx
  801538:	8b 74 24 04          	mov    0x4(%esp),%esi
  80153c:	8b 7c 24 08          	mov    0x8(%esp),%edi
  801540:	89 ec                	mov    %ebp,%esp
  801542:	5d                   	pop    %ebp
  801543:	c3                   	ret    

00801544 <sys_env_set_pgfault_upcall>:
	return syscall(SYS_env_set_trapframe, 1, envid, (uint32_t) tf, 0, 0, 0);
}

int
sys_env_set_pgfault_upcall(envid_t envid, void *upcall)
{
  801544:	55                   	push   %ebp
  801545:	89 e5                	mov    %esp,%ebp
  801547:	83 ec 28             	sub    $0x28,%esp
  80154a:	89 5d f4             	mov    %ebx,-0xc(%ebp)
  80154d:	89 75 f8             	mov    %esi,-0x8(%ebp)
  801550:	89 7d fc             	mov    %edi,-0x4(%ebp)
  801553:	8b 55 08             	mov    0x8(%ebp),%edx
  801556:	8b 4d 0c             	mov    0xc(%ebp),%ecx
	// 
	// The last clause tells the assembler that this can
	// potentially change the condition codes and arbitrary
	// memory locations.

	asm volatile("int %1\n"
  801559:	b8 0a 00 00 00       	mov    $0xa,%eax
  80155e:	bf 00 00 00 00       	mov    $0x0,%edi
  801563:	89 fb                	mov    %edi,%ebx
  801565:	89 fe                	mov    %edi,%esi
  801567:	cd 30                	int    $0x30
		  "b" (a3),
		  "D" (a4),
		  "S" (a5)
		: "cc", "memory");
	
	if(check && ret > 0)
  801569:	85 c0                	test   %eax,%eax
  80156b:	7e 28                	jle    801595 <sys_env_set_pgfault_upcall+0x51>
		panic("syscall %d returned %d (> 0)", num, ret);
  80156d:	89 44 24 10          	mov    %eax,0x10(%esp)
  801571:	c7 44 24 0c 0a 00 00 	movl   $0xa,0xc(%esp)
  801578:	00 
  801579:	c7 44 24 08 1f 26 81 	movl   $0x81261f,0x8(%esp)
  801580:	00 
  801581:	c7 44 24 04 23 00 00 	movl   $0x23,0x4(%esp)
  801588:	00 
  801589:	c7 04 24 3c 26 81 00 	movl   $0x81263c,(%esp)
  801590:	e8 17 f3 ff ff       	call   8008ac <_panic>

int
sys_env_set_pgfault_upcall(envid_t envid, void *upcall)
{
	return syscall(SYS_env_set_pgfault_upcall, 1, envid, (uint32_t) upcall, 0, 0, 0);
}
  801595:	8b 5d f4             	mov    -0xc(%ebp),%ebx
  801598:	8b 75 f8             	mov    -0x8(%ebp),%esi
  80159b:	8b 7d fc             	mov    -0x4(%ebp),%edi
  80159e:	89 ec                	mov    %ebp,%esp
  8015a0:	5d                   	pop    %ebp
  8015a1:	c3                   	ret    

008015a2 <sys_env_set_trapframe>:
	return syscall(SYS_env_set_status, 1, envid, status, 0, 0, 0);
}

int
sys_env_set_trapframe(envid_t envid, struct Trapframe *tf)
{
  8015a2:	55                   	push   %ebp
  8015a3:	89 e5                	mov    %esp,%ebp
  8015a5:	83 ec 28             	sub    $0x28,%esp
  8015a8:	89 5d f4             	mov    %ebx,-0xc(%ebp)
  8015ab:	89 75 f8             	mov    %esi,-0x8(%ebp)
  8015ae:	89 7d fc             	mov    %edi,-0x4(%ebp)
  8015b1:	8b 55 08             	mov    0x8(%ebp),%edx
  8015b4:	8b 4d 0c             	mov    0xc(%ebp),%ecx
	// 
	// The last clause tells the assembler that this can
	// potentially change the condition codes and arbitrary
	// memory locations.

	asm volatile("int %1\n"
  8015b7:	b8 09 00 00 00       	mov    $0x9,%eax
  8015bc:	bf 00 00 00 00       	mov    $0x0,%edi
  8015c1:	89 fb                	mov    %edi,%ebx
  8015c3:	89 fe                	mov    %edi,%esi
  8015c5:	cd 30                	int    $0x30
		  "b" (a3),
		  "D" (a4),
		  "S" (a5)
		: "cc", "memory");
	
	if(check && ret > 0)
  8015c7:	85 c0                	test   %eax,%eax
  8015c9:	7e 28                	jle    8015f3 <sys_env_set_trapframe+0x51>
		panic("syscall %d returned %d (> 0)", num, ret);
  8015cb:	89 44 24 10          	mov    %eax,0x10(%esp)
  8015cf:	c7 44 24 0c 09 00 00 	movl   $0x9,0xc(%esp)
  8015d6:	00 
  8015d7:	c7 44 24 08 1f 26 81 	movl   $0x81261f,0x8(%esp)
  8015de:	00 
  8015df:	c7 44 24 04 23 00 00 	movl   $0x23,0x4(%esp)
  8015e6:	00 
  8015e7:	c7 04 24 3c 26 81 00 	movl   $0x81263c,(%esp)
  8015ee:	e8 b9 f2 ff ff       	call   8008ac <_panic>

int
sys_env_set_trapframe(envid_t envid, struct Trapframe *tf)
{
	return syscall(SYS_env_set_trapframe, 1, envid, (uint32_t) tf, 0, 0, 0);
}
  8015f3:	8b 5d f4             	mov    -0xc(%ebp),%ebx
  8015f6:	8b 75 f8             	mov    -0x8(%ebp),%esi
  8015f9:	8b 7d fc             	mov    -0x4(%ebp),%edi
  8015fc:	89 ec                	mov    %ebp,%esp
  8015fe:	5d                   	pop    %ebp
  8015ff:	c3                   	ret    

00801600 <sys_env_set_status>:

// sys_exofork is inlined in lib.h

int
sys_env_set_status(envid_t envid, int status)
{
  801600:	55                   	push   %ebp
  801601:	89 e5                	mov    %esp,%ebp
  801603:	83 ec 28             	sub    $0x28,%esp
  801606:	89 5d f4             	mov    %ebx,-0xc(%ebp)
  801609:	89 75 f8             	mov    %esi,-0x8(%ebp)
  80160c:	89 7d fc             	mov    %edi,-0x4(%ebp)
  80160f:	8b 55 08             	mov    0x8(%ebp),%edx
  801612:	8b 4d 0c             	mov    0xc(%ebp),%ecx
	// 
	// The last clause tells the assembler that this can
	// potentially change the condition codes and arbitrary
	// memory locations.

	asm volatile("int %1\n"
  801615:	b8 08 00 00 00       	mov    $0x8,%eax
  80161a:	bf 00 00 00 00       	mov    $0x0,%edi
  80161f:	89 fb                	mov    %edi,%ebx
  801621:	89 fe                	mov    %edi,%esi
  801623:	cd 30                	int    $0x30
		  "b" (a3),
		  "D" (a4),
		  "S" (a5)
		: "cc", "memory");
	
	if(check && ret > 0)
  801625:	85 c0                	test   %eax,%eax
  801627:	7e 28                	jle    801651 <sys_env_set_status+0x51>
		panic("syscall %d returned %d (> 0)", num, ret);
  801629:	89 44 24 10          	mov    %eax,0x10(%esp)
  80162d:	c7 44 24 0c 08 00 00 	movl   $0x8,0xc(%esp)
  801634:	00 
  801635:	c7 44 24 08 1f 26 81 	movl   $0x81261f,0x8(%esp)
  80163c:	00 
  80163d:	c7 44 24 04 23 00 00 	movl   $0x23,0x4(%esp)
  801644:	00 
  801645:	c7 04 24 3c 26 81 00 	movl   $0x81263c,(%esp)
  80164c:	e8 5b f2 ff ff       	call   8008ac <_panic>

int
sys_env_set_status(envid_t envid, int status)
{
	return syscall(SYS_env_set_status, 1, envid, status, 0, 0, 0);
}
  801651:	8b 5d f4             	mov    -0xc(%ebp),%ebx
  801654:	8b 75 f8             	mov    -0x8(%ebp),%esi
  801657:	8b 7d fc             	mov    -0x4(%ebp),%edi
  80165a:	89 ec                	mov    %ebp,%esp
  80165c:	5d                   	pop    %ebp
  80165d:	c3                   	ret    

0080165e <sys_page_unmap>:
	return syscall(SYS_page_map, 1, srcenv, (uint32_t) srcva, dstenv, (uint32_t) dstva, perm);
}

int
sys_page_unmap(envid_t envid, void *va)
{
  80165e:	55                   	push   %ebp
  80165f:	89 e5                	mov    %esp,%ebp
  801661:	83 ec 28             	sub    $0x28,%esp
  801664:	89 5d f4             	mov    %ebx,-0xc(%ebp)
  801667:	89 75 f8             	mov    %esi,-0x8(%ebp)
  80166a:	89 7d fc             	mov    %edi,-0x4(%ebp)
  80166d:	8b 55 08             	mov    0x8(%ebp),%edx
  801670:	8b 4d 0c             	mov    0xc(%ebp),%ecx
	// 
	// The last clause tells the assembler that this can
	// potentially change the condition codes and arbitrary
	// memory locations.

	asm volatile("int %1\n"
  801673:	b8 06 00 00 00       	mov    $0x6,%eax
  801678:	bf 00 00 00 00       	mov    $0x0,%edi
  80167d:	89 fb                	mov    %edi,%ebx
  80167f:	89 fe                	mov    %edi,%esi
  801681:	cd 30                	int    $0x30
		  "b" (a3),
		  "D" (a4),
		  "S" (a5)
		: "cc", "memory");
	
	if(check && ret > 0)
  801683:	85 c0                	test   %eax,%eax
  801685:	7e 28                	jle    8016af <sys_page_unmap+0x51>
		panic("syscall %d returned %d (> 0)", num, ret);
  801687:	89 44 24 10          	mov    %eax,0x10(%esp)
  80168b:	c7 44 24 0c 06 00 00 	movl   $0x6,0xc(%esp)
  801692:	00 
  801693:	c7 44 24 08 1f 26 81 	movl   $0x81261f,0x8(%esp)
  80169a:	00 
  80169b:	c7 44 24 04 23 00 00 	movl   $0x23,0x4(%esp)
  8016a2:	00 
  8016a3:	c7 04 24 3c 26 81 00 	movl   $0x81263c,(%esp)
  8016aa:	e8 fd f1 ff ff       	call   8008ac <_panic>

int
sys_page_unmap(envid_t envid, void *va)
{
	return syscall(SYS_page_unmap, 1, envid, (uint32_t) va, 0, 0, 0);
}
  8016af:	8b 5d f4             	mov    -0xc(%ebp),%ebx
  8016b2:	8b 75 f8             	mov    -0x8(%ebp),%esi
  8016b5:	8b 7d fc             	mov    -0x4(%ebp),%edi
  8016b8:	89 ec                	mov    %ebp,%esp
  8016ba:	5d                   	pop    %ebp
  8016bb:	c3                   	ret    

008016bc <sys_page_map>:
	return syscall(SYS_page_alloc, 1, envid, (uint32_t) va, perm, 0, 0);
}

int
sys_page_map(envid_t srcenv, void *srcva, envid_t dstenv, void *dstva, int perm)
{
  8016bc:	55                   	push   %ebp
  8016bd:	89 e5                	mov    %esp,%ebp
  8016bf:	83 ec 28             	sub    $0x28,%esp
  8016c2:	89 5d f4             	mov    %ebx,-0xc(%ebp)
  8016c5:	89 75 f8             	mov    %esi,-0x8(%ebp)
  8016c8:	89 7d fc             	mov    %edi,-0x4(%ebp)
  8016cb:	8b 55 08             	mov    0x8(%ebp),%edx
  8016ce:	8b 4d 0c             	mov    0xc(%ebp),%ecx
  8016d1:	8b 5d 10             	mov    0x10(%ebp),%ebx
  8016d4:	8b 7d 14             	mov    0x14(%ebp),%edi
  8016d7:	8b 75 18             	mov    0x18(%ebp),%esi
	// 
	// The last clause tells the assembler that this can
	// potentially change the condition codes and arbitrary
	// memory locations.

	asm volatile("int %1\n"
  8016da:	b8 05 00 00 00       	mov    $0x5,%eax
  8016df:	cd 30                	int    $0x30
		  "b" (a3),
		  "D" (a4),
		  "S" (a5)
		: "cc", "memory");
	
	if(check && ret > 0)
  8016e1:	85 c0                	test   %eax,%eax
  8016e3:	7e 28                	jle    80170d <sys_page_map+0x51>
		panic("syscall %d returned %d (> 0)", num, ret);
  8016e5:	89 44 24 10          	mov    %eax,0x10(%esp)
  8016e9:	c7 44 24 0c 05 00 00 	movl   $0x5,0xc(%esp)
  8016f0:	00 
  8016f1:	c7 44 24 08 1f 26 81 	movl   $0x81261f,0x8(%esp)
  8016f8:	00 
  8016f9:	c7 44 24 04 23 00 00 	movl   $0x23,0x4(%esp)
  801700:	00 
  801701:	c7 04 24 3c 26 81 00 	movl   $0x81263c,(%esp)
  801708:	e8 9f f1 ff ff       	call   8008ac <_panic>

int
sys_page_map(envid_t srcenv, void *srcva, envid_t dstenv, void *dstva, int perm)
{
	return syscall(SYS_page_map, 1, srcenv, (uint32_t) srcva, dstenv, (uint32_t) dstva, perm);
}
  80170d:	8b 5d f4             	mov    -0xc(%ebp),%ebx
  801710:	8b 75 f8             	mov    -0x8(%ebp),%esi
  801713:	8b 7d fc             	mov    -0x4(%ebp),%edi
  801716:	89 ec                	mov    %ebp,%esp
  801718:	5d                   	pop    %ebp
  801719:	c3                   	ret    

0080171a <sys_page_alloc>:
	syscall(SYS_yield, 0, 0, 0, 0, 0, 0);
}

int
sys_page_alloc(envid_t envid, void *va, int perm)
{
  80171a:	55                   	push   %ebp
  80171b:	89 e5                	mov    %esp,%ebp
  80171d:	83 ec 28             	sub    $0x28,%esp
  801720:	89 5d f4             	mov    %ebx,-0xc(%ebp)
  801723:	89 75 f8             	mov    %esi,-0x8(%ebp)
  801726:	89 7d fc             	mov    %edi,-0x4(%ebp)
  801729:	8b 55 08             	mov    0x8(%ebp),%edx
  80172c:	8b 4d 0c             	mov    0xc(%ebp),%ecx
  80172f:	8b 5d 10             	mov    0x10(%ebp),%ebx
	// 
	// The last clause tells the assembler that this can
	// potentially change the condition codes and arbitrary
	// memory locations.

	asm volatile("int %1\n"
  801732:	b8 04 00 00 00       	mov    $0x4,%eax
  801737:	bf 00 00 00 00       	mov    $0x0,%edi
  80173c:	89 fe                	mov    %edi,%esi
  80173e:	cd 30                	int    $0x30
		  "b" (a3),
		  "D" (a4),
		  "S" (a5)
		: "cc", "memory");
	
	if(check && ret > 0)
  801740:	85 c0                	test   %eax,%eax
  801742:	7e 28                	jle    80176c <sys_page_alloc+0x52>
		panic("syscall %d returned %d (> 0)", num, ret);
  801744:	89 44 24 10          	mov    %eax,0x10(%esp)
  801748:	c7 44 24 0c 04 00 00 	movl   $0x4,0xc(%esp)
  80174f:	00 
  801750:	c7 44 24 08 1f 26 81 	movl   $0x81261f,0x8(%esp)
  801757:	00 
  801758:	c7 44 24 04 23 00 00 	movl   $0x23,0x4(%esp)
  80175f:	00 
  801760:	c7 04 24 3c 26 81 00 	movl   $0x81263c,(%esp)
  801767:	e8 40 f1 ff ff       	call   8008ac <_panic>

int
sys_page_alloc(envid_t envid, void *va, int perm)
{
	return syscall(SYS_page_alloc, 1, envid, (uint32_t) va, perm, 0, 0);
}
  80176c:	8b 5d f4             	mov    -0xc(%ebp),%ebx
  80176f:	8b 75 f8             	mov    -0x8(%ebp),%esi
  801772:	8b 7d fc             	mov    -0x4(%ebp),%edi
  801775:	89 ec                	mov    %ebp,%esp
  801777:	5d                   	pop    %ebp
  801778:	c3                   	ret    

00801779 <sys_yield>:
	 return syscall(SYS_getenvid, 0, 0, 0, 0, 0, 0);
}

void
sys_yield(void)
{
  801779:	55                   	push   %ebp
  80177a:	89 e5                	mov    %esp,%ebp
  80177c:	83 ec 0c             	sub    $0xc,%esp
  80177f:	89 1c 24             	mov    %ebx,(%esp)
  801782:	89 74 24 04          	mov    %esi,0x4(%esp)
  801786:	89 7c 24 08          	mov    %edi,0x8(%esp)
	// 
	// The last clause tells the assembler that this can
	// potentially change the condition codes and arbitrary
	// memory locations.

	asm volatile("int %1\n"
  80178a:	b8 0b 00 00 00       	mov    $0xb,%eax
  80178f:	bf 00 00 00 00       	mov    $0x0,%edi
  801794:	89 fa                	mov    %edi,%edx
  801796:	89 f9                	mov    %edi,%ecx
  801798:	89 fb                	mov    %edi,%ebx
  80179a:	89 fe                	mov    %edi,%esi
  80179c:	cd 30                	int    $0x30

void
sys_yield(void)
{
	syscall(SYS_yield, 0, 0, 0, 0, 0, 0);
}
  80179e:	8b 1c 24             	mov    (%esp),%ebx
  8017a1:	8b 74 24 04          	mov    0x4(%esp),%esi
  8017a5:	8b 7c 24 08          	mov    0x8(%esp),%edi
  8017a9:	89 ec                	mov    %ebp,%esp
  8017ab:	5d                   	pop    %ebp
  8017ac:	c3                   	ret    

008017ad <sys_getenvid>:
	return syscall(SYS_env_destroy, 1, envid, 0, 0, 0, 0);
}

envid_t
sys_getenvid(void)
{
  8017ad:	55                   	push   %ebp
  8017ae:	89 e5                	mov    %esp,%ebp
  8017b0:	83 ec 0c             	sub    $0xc,%esp
  8017b3:	89 1c 24             	mov    %ebx,(%esp)
  8017b6:	89 74 24 04          	mov    %esi,0x4(%esp)
  8017ba:	89 7c 24 08          	mov    %edi,0x8(%esp)
	// 
	// The last clause tells the assembler that this can
	// potentially change the condition codes and arbitrary
	// memory locations.

	asm volatile("int %1\n"
  8017be:	b8 02 00 00 00       	mov    $0x2,%eax
  8017c3:	bf 00 00 00 00       	mov    $0x0,%edi
  8017c8:	89 fa                	mov    %edi,%edx
  8017ca:	89 f9                	mov    %edi,%ecx
  8017cc:	89 fb                	mov    %edi,%ebx
  8017ce:	89 fe                	mov    %edi,%esi
  8017d0:	cd 30                	int    $0x30

envid_t
sys_getenvid(void)
{
	 return syscall(SYS_getenvid, 0, 0, 0, 0, 0, 0);
}
  8017d2:	8b 1c 24             	mov    (%esp),%ebx
  8017d5:	8b 74 24 04          	mov    0x4(%esp),%esi
  8017d9:	8b 7c 24 08          	mov    0x8(%esp),%edi
  8017dd:	89 ec                	mov    %ebp,%esp
  8017df:	5d                   	pop    %ebp
  8017e0:	c3                   	ret    

008017e1 <sys_env_destroy>:
	return syscall(SYS_cgetc, 0, 0, 0, 0, 0, 0);
}

int
sys_env_destroy(envid_t envid)
{
  8017e1:	55                   	push   %ebp
  8017e2:	89 e5                	mov    %esp,%ebp
  8017e4:	83 ec 28             	sub    $0x28,%esp
  8017e7:	89 5d f4             	mov    %ebx,-0xc(%ebp)
  8017ea:	89 75 f8             	mov    %esi,-0x8(%ebp)
  8017ed:	89 7d fc             	mov    %edi,-0x4(%ebp)
  8017f0:	8b 55 08             	mov    0x8(%ebp),%edx
	// 
	// The last clause tells the assembler that this can
	// potentially change the condition codes and arbitrary
	// memory locations.

	asm volatile("int %1\n"
  8017f3:	b8 03 00 00 00       	mov    $0x3,%eax
  8017f8:	bf 00 00 00 00       	mov    $0x0,%edi
  8017fd:	89 f9                	mov    %edi,%ecx
  8017ff:	89 fb                	mov    %edi,%ebx
  801801:	89 fe                	mov    %edi,%esi
  801803:	cd 30                	int    $0x30
		  "b" (a3),
		  "D" (a4),
		  "S" (a5)
		: "cc", "memory");
	
	if(check && ret > 0)
  801805:	85 c0                	test   %eax,%eax
  801807:	7e 28                	jle    801831 <sys_env_destroy+0x50>
		panic("syscall %d returned %d (> 0)", num, ret);
  801809:	89 44 24 10          	mov    %eax,0x10(%esp)
  80180d:	c7 44 24 0c 03 00 00 	movl   $0x3,0xc(%esp)
  801814:	00 
  801815:	c7 44 24 08 1f 26 81 	movl   $0x81261f,0x8(%esp)
  80181c:	00 
  80181d:	c7 44 24 04 23 00 00 	movl   $0x23,0x4(%esp)
  801824:	00 
  801825:	c7 04 24 3c 26 81 00 	movl   $0x81263c,(%esp)
  80182c:	e8 7b f0 ff ff       	call   8008ac <_panic>

int
sys_env_destroy(envid_t envid)
{
	return syscall(SYS_env_destroy, 1, envid, 0, 0, 0, 0);
}
  801831:	8b 5d f4             	mov    -0xc(%ebp),%ebx
  801834:	8b 75 f8             	mov    -0x8(%ebp),%esi
  801837:	8b 7d fc             	mov    -0x4(%ebp),%edi
  80183a:	89 ec                	mov    %ebp,%esp
  80183c:	5d                   	pop    %ebp
  80183d:	c3                   	ret    
	...

00801840 <duppage>:
// Returns: 0 on success, < 0 on error.
// It is also OK to panic on error.
// 
static int
duppage(envid_t envid, unsigned pn)
{
  801840:	55                   	push   %ebp
  801841:	89 e5                	mov    %esp,%ebp
  801843:	53                   	push   %ebx
  801844:	83 ec 14             	sub    $0x14,%esp
  801847:	89 c1                	mov    %eax,%ecx
	int r;

	// LAB 4: Your code here.
	pde_t *pde;
	pte_t *pte;
	void *addr=(void*)(pn*PGSIZE);
  801849:	89 d3                	mov    %edx,%ebx
  80184b:	c1 e3 0c             	shl    $0xc,%ebx
	pde =(pde_t*) &vpd[VPD(addr)];
	if(*pde&PTE_P)
  80184e:	89 d8                	mov    %ebx,%eax
  801850:	c1 e8 16             	shr    $0x16,%eax
  801853:	f6 04 85 00 d0 7b ef 	testb  $0x1,-0x10843000(,%eax,4)
  80185a:	01 
  80185b:	74 14                	je     801871 <duppage+0x31>
	{
		pte=(pte_t*)&vpt[VPN(addr)];
	}
	else    panic("page table for pn page is not exist");
	if((*pte&PTE_W)||(*pte&PTE_COW))
  80185d:	89 d8                	mov    %ebx,%eax
  80185f:	c1 e8 0c             	shr    $0xc,%eax
  801862:	f7 04 85 00 00 40 ef 	testl  $0x802,-0x10c00000(,%eax,4)
  801869:	02 08 00 00 
  80186d:	75 1e                	jne    80188d <duppage+0x4d>
  80186f:	eb 73                	jmp    8018e4 <duppage+0xa4>
	pde =(pde_t*) &vpd[VPD(addr)];
	if(*pde&PTE_P)
	{
		pte=(pte_t*)&vpt[VPN(addr)];
	}
	else    panic("page table for pn page is not exist");
  801871:	c7 44 24 08 4c 26 81 	movl   $0x81264c,0x8(%esp)
  801878:	00 
  801879:	c7 44 24 04 63 00 00 	movl   $0x63,0x4(%esp)
  801880:	00 
  801881:	c7 04 24 0a 27 81 00 	movl   $0x81270a,(%esp)
  801888:	e8 1f f0 ff ff       	call   8008ac <_panic>
	if((*pte&PTE_W)||(*pte&PTE_COW))
	{
		if((r=sys_page_map(0,addr,envid,addr,PTE_COW|PTE_U))<0)
  80188d:	c7 44 24 10 04 08 00 	movl   $0x804,0x10(%esp)
  801894:	00 
  801895:	89 5c 24 0c          	mov    %ebx,0xc(%esp)
  801899:	89 4c 24 08          	mov    %ecx,0x8(%esp)
  80189d:	89 5c 24 04          	mov    %ebx,0x4(%esp)
  8018a1:	c7 04 24 00 00 00 00 	movl   $0x0,(%esp)
  8018a8:	e8 0f fe ff ff       	call   8016bc <sys_page_map>
  8018ad:	85 c0                	test   %eax,%eax
  8018af:	78 60                	js     801911 <duppage+0xd1>
			return r;
		if((r=sys_page_map(0,addr,0,addr,PTE_COW|PTE_U))<0)//envid
  8018b1:	c7 44 24 10 04 08 00 	movl   $0x804,0x10(%esp)
  8018b8:	00 
  8018b9:	89 5c 24 0c          	mov    %ebx,0xc(%esp)
  8018bd:	c7 44 24 08 00 00 00 	movl   $0x0,0x8(%esp)
  8018c4:	00 
  8018c5:	89 5c 24 04          	mov    %ebx,0x4(%esp)
  8018c9:	c7 04 24 00 00 00 00 	movl   $0x0,(%esp)
  8018d0:	e8 e7 fd ff ff       	call   8016bc <sys_page_map>
  8018d5:	85 c0                	test   %eax,%eax
  8018d7:	0f 9f c2             	setg   %dl
  8018da:	0f b6 d2             	movzbl %dl,%edx
  8018dd:	83 ea 01             	sub    $0x1,%edx
  8018e0:	21 d0                	and    %edx,%eax
  8018e2:	eb 2d                	jmp    801911 <duppage+0xd1>
                        return r;
	}
	else{	
		if((r=sys_page_map(0,addr,envid,addr,PTE_U|PTE_P))<0)
  8018e4:	c7 44 24 10 05 00 00 	movl   $0x5,0x10(%esp)
  8018eb:	00 
  8018ec:	89 5c 24 0c          	mov    %ebx,0xc(%esp)
  8018f0:	89 4c 24 08          	mov    %ecx,0x8(%esp)
  8018f4:	89 5c 24 04          	mov    %ebx,0x4(%esp)
  8018f8:	c7 04 24 00 00 00 00 	movl   $0x0,(%esp)
  8018ff:	e8 b8 fd ff ff       	call   8016bc <sys_page_map>
  801904:	85 c0                	test   %eax,%eax
  801906:	0f 9f c2             	setg   %dl
  801909:	0f b6 d2             	movzbl %dl,%edx
  80190c:	83 ea 01             	sub    $0x1,%edx
  80190f:	21 d0                	and    %edx,%eax
			return r;
	}
	//panic("duppage not implemented");
	return 0;
}
  801911:	83 c4 14             	add    $0x14,%esp
  801914:	5b                   	pop    %ebx
  801915:	5d                   	pop    %ebp
  801916:	c3                   	ret    

00801917 <sfork>:
	return 0;
}
// Challenge!
int
sfork(void)
{
  801917:	55                   	push   %ebp
  801918:	89 e5                	mov    %esp,%ebp
  80191a:	57                   	push   %edi
  80191b:	56                   	push   %esi
  80191c:	53                   	push   %ebx
  80191d:	83 ec 1c             	sub    $0x1c,%esp
static __inline envid_t sys_exofork(void) __attribute__((always_inline));
static __inline envid_t
sys_exofork(void)
{
	envid_t ret;
	__asm __volatile("int %2"
  801920:	ba 07 00 00 00       	mov    $0x7,%edx
  801925:	89 d0                	mov    %edx,%eax
  801927:	cd 30                	int    $0x30
  801929:	89 45 f0             	mov    %eax,-0x10(%ebp)
	pte_t *pte;
	unsigned i;
	uint32_t addr;
	envid_t envid;
	envid = sys_exofork();//
	if(envid < 0)
  80192c:	85 c0                	test   %eax,%eax
  80192e:	79 20                	jns    801950 <sfork+0x39>
		panic("sys_exofork: %e", envid);
  801930:	89 44 24 0c          	mov    %eax,0xc(%esp)
  801934:	c7 44 24 08 15 27 81 	movl   $0x812715,0x8(%esp)
  80193b:	00 
  80193c:	c7 44 24 04 dc 00 00 	movl   $0xdc,0x4(%esp)
  801943:	00 
  801944:	c7 04 24 0a 27 81 00 	movl   $0x81270a,(%esp)
  80194b:	e8 5c ef ff ff       	call   8008ac <_panic>
	if(envid==0)//
  801950:	83 7d f0 00          	cmpl   $0x0,-0x10(%ebp)
  801954:	75 21                	jne    801977 <sfork+0x60>
	{
		env = &envs[ENVX(sys_getenvid())];
  801956:	e8 52 fe ff ff       	call   8017ad <sys_getenvid>
  80195b:	25 ff 03 00 00       	and    $0x3ff,%eax
  801960:	6b c0 7c             	imul   $0x7c,%eax,%eax
  801963:	05 00 00 c0 ee       	add    $0xeec00000,%eax
  801968:	a3 b4 e5 b3 00       	mov    %eax,0xb3e5b4
  80196d:	b8 00 00 00 00       	mov    $0x0,%eax
  801972:	e9 83 01 00 00       	jmp    801afa <sfork+0x1e3>
		return 0;
	}
	else{//,
	//
		env = &envs[ENVX(sys_getenvid())];
  801977:	e8 31 fe ff ff       	call   8017ad <sys_getenvid>
  80197c:	25 ff 03 00 00       	and    $0x3ff,%eax
  801981:	6b c0 7c             	imul   $0x7c,%eax,%eax
  801984:	05 00 00 c0 ee       	add    $0xeec00000,%eax
  801989:	a3 b4 e5 b3 00       	mov    %eax,0xb3e5b4
		set_pgfault_handler(pgfault);//
  80198e:	c7 04 24 02 1b 80 00 	movl   $0x801b02,(%esp)
  801995:	e8 ee 15 00 00       	call   802f88 <set_pgfault_handler>
  80199a:	be 00 00 00 00       	mov    $0x0,%esi
  80199f:	bf 00 00 00 00       	mov    $0x0,%edi
		for(i=0;i<(unsigned)VPN(UTOP);i++)//writable or copy-to-write
		{
			addr=i*PGSIZE;
			pde =(pde_t*) &vpd[VPD(addr)];
  8019a4:	89 f8                	mov    %edi,%eax
  8019a6:	c1 e8 16             	shr    $0x16,%eax
  8019a9:	c1 e0 02             	shl    $0x2,%eax
			if(*pde&PTE_P)//
  8019ac:	f6 80 00 d0 7b ef 01 	testb  $0x1,-0x10843000(%eax)
  8019b3:	0f 84 dc 00 00 00    	je     801a95 <sfork+0x17e>
			{
				pte=(pte_t*)&vpt[VPN(addr)];
			}
			else    continue;
			if((i==(unsigned)VPN(USTACKTOP-PGSIZE))||(i==(unsigned)VPN(PFTEMP)))
  8019b9:	81 fe fd eb 0e 00    	cmp    $0xeebfd,%esi
  8019bf:	74 08                	je     8019c9 <sfork+0xb2>
  8019c1:	81 fe ff 07 00 00    	cmp    $0x7ff,%esi
  8019c7:	75 17                	jne    8019e0 <sfork+0xc9>
								//
			{	
				if((r=duppage(envid,i))<0)
  8019c9:	89 f2                	mov    %esi,%edx
  8019cb:	8b 45 f0             	mov    -0x10(%ebp),%eax
  8019ce:	e8 6d fe ff ff       	call   801840 <duppage>
  8019d3:	85 c0                	test   %eax,%eax
  8019d5:	0f 89 ba 00 00 00    	jns    801a95 <sfork+0x17e>
  8019db:	e9 1a 01 00 00       	jmp    801afa <sfork+0x1e3>
	// LAB 4: Your code here.
	pde_t *pde;
	pte_t *pte;
	void *addr=(void*)(pn*PGSIZE);
	pde =(pde_t*) &vpd[VPD(addr)];
	if(*pde&PTE_P)
  8019e0:	f6 80 00 d0 7b ef 01 	testb  $0x1,-0x10843000(%eax)
  8019e7:	74 11                	je     8019fa <sfork+0xe3>
	{
		pte=(pte_t*)&vpt[VPN(addr)];
  8019e9:	89 f8                	mov    %edi,%eax
  8019eb:	c1 e8 0c             	shr    $0xc,%eax
	}
	else    panic("page table for pn page is not exist");
	if(*pte&PTE_W)
  8019ee:	f6 04 85 00 00 40 ef 	testb  $0x2,-0x10c00000(,%eax,4)
  8019f5:	02 
  8019f6:	75 1e                	jne    801a16 <sfork+0xff>
  8019f8:	eb 74                	jmp    801a6e <sfork+0x157>
	pde =(pde_t*) &vpd[VPD(addr)];
	if(*pde&PTE_P)
	{
		pte=(pte_t*)&vpt[VPN(addr)];
	}
	else    panic("page table for pn page is not exist");
  8019fa:	c7 44 24 08 4c 26 81 	movl   $0x81264c,0x8(%esp)
  801a01:	00 
  801a02:	c7 44 24 04 c0 00 00 	movl   $0xc0,0x4(%esp)
  801a09:	00 
  801a0a:	c7 04 24 0a 27 81 00 	movl   $0x81270a,(%esp)
  801a11:	e8 96 ee ff ff       	call   8008ac <_panic>
	if(*pte&PTE_W)
	{
		//cprintf("sduppage:addr=%x\n",addr);
		if((r=sys_page_map(0,addr,envid,addr,PTE_W|PTE_U))<0)
  801a16:	c7 44 24 10 06 00 00 	movl   $0x6,0x10(%esp)
  801a1d:	00 
  801a1e:	89 7c 24 0c          	mov    %edi,0xc(%esp)
  801a22:	8b 45 f0             	mov    -0x10(%ebp),%eax
  801a25:	89 44 24 08          	mov    %eax,0x8(%esp)
  801a29:	89 7c 24 04          	mov    %edi,0x4(%esp)
  801a2d:	c7 04 24 00 00 00 00 	movl   $0x0,(%esp)
  801a34:	e8 83 fc ff ff       	call   8016bc <sys_page_map>
  801a39:	85 c0                	test   %eax,%eax
  801a3b:	0f 88 b9 00 00 00    	js     801afa <sfork+0x1e3>
			return r;
		if((r=sys_page_map(0,addr,0,addr,PTE_W|PTE_U))<0)//envid
  801a41:	c7 44 24 10 06 00 00 	movl   $0x6,0x10(%esp)
  801a48:	00 
  801a49:	89 7c 24 0c          	mov    %edi,0xc(%esp)
  801a4d:	c7 44 24 08 00 00 00 	movl   $0x0,0x8(%esp)
  801a54:	00 
  801a55:	89 7c 24 04          	mov    %edi,0x4(%esp)
  801a59:	c7 04 24 00 00 00 00 	movl   $0x0,(%esp)
  801a60:	e8 57 fc ff ff       	call   8016bc <sys_page_map>
  801a65:	85 c0                	test   %eax,%eax
  801a67:	79 2c                	jns    801a95 <sfork+0x17e>
  801a69:	e9 8c 00 00 00       	jmp    801afa <sfork+0x1e3>
                        return r;
	}
	else{	
		if((r=sys_page_map(0,addr,envid,addr,PTE_U|PTE_P))<0)
  801a6e:	c7 44 24 10 05 00 00 	movl   $0x5,0x10(%esp)
  801a75:	00 
  801a76:	89 7c 24 0c          	mov    %edi,0xc(%esp)
  801a7a:	8b 45 f0             	mov    -0x10(%ebp),%eax
  801a7d:	89 44 24 08          	mov    %eax,0x8(%esp)
  801a81:	89 7c 24 04          	mov    %edi,0x4(%esp)
  801a85:	c7 04 24 00 00 00 00 	movl   $0x0,(%esp)
  801a8c:	e8 2b fc ff ff       	call   8016bc <sys_page_map>
  801a91:	85 c0                	test   %eax,%eax
  801a93:	78 65                	js     801afa <sfork+0x1e3>
	}
	else{//,
	//
		env = &envs[ENVX(sys_getenvid())];
		set_pgfault_handler(pgfault);//
		for(i=0;i<(unsigned)VPN(UTOP);i++)//writable or copy-to-write
  801a95:	83 c6 01             	add    $0x1,%esi
  801a98:	81 c7 00 10 00 00    	add    $0x1000,%edi
  801a9e:	81 fe 00 ec 0e 00    	cmp    $0xeec00,%esi
  801aa4:	0f 85 fa fe ff ff    	jne    8019a4 <sfork+0x8d>
				continue;
			}
			if((r=sduppage(envid,i))<0)
				return r;
		}
		if((r=sys_page_alloc(envid,(void*)(UXSTACKTOP-PGSIZE),PTE_W|PTE_U|PTE_P))<0)
  801aaa:	c7 44 24 08 07 00 00 	movl   $0x7,0x8(%esp)
  801ab1:	00 
  801ab2:	c7 44 24 04 00 f0 bf 	movl   $0xeebff000,0x4(%esp)
  801ab9:	ee 
  801aba:	8b 45 f0             	mov    -0x10(%ebp),%eax
  801abd:	89 04 24             	mov    %eax,(%esp)
  801ac0:	e8 55 fc ff ff       	call   80171a <sys_page_alloc>
  801ac5:	85 c0                	test   %eax,%eax
  801ac7:	78 31                	js     801afa <sfork+0x1e3>
                        return r;//
		if((r=sys_env_set_pgfault_upcall(envid,(void*)_pgfault_upcall))<0)
  801ac9:	c7 44 24 04 0c 30 80 	movl   $0x80300c,0x4(%esp)
  801ad0:	00 
  801ad1:	8b 45 f0             	mov    -0x10(%ebp),%eax
  801ad4:	89 04 24             	mov    %eax,(%esp)
  801ad7:	e8 68 fa ff ff       	call   801544 <sys_env_set_pgfault_upcall>
  801adc:	85 c0                	test   %eax,%eax
  801ade:	78 1a                	js     801afa <sfork+0x1e3>
			return r;//
		if((r=sys_env_set_status(envid,ENV_RUNNABLE))<0)
  801ae0:	c7 44 24 04 01 00 00 	movl   $0x1,0x4(%esp)
  801ae7:	00 
  801ae8:	8b 45 f0             	mov    -0x10(%ebp),%eax
  801aeb:	89 04 24             	mov    %eax,(%esp)
  801aee:	e8 0d fb ff ff       	call   801600 <sys_env_set_status>
  801af3:	85 c0                	test   %eax,%eax
  801af5:	78 03                	js     801afa <sfork+0x1e3>
  801af7:	8b 45 f0             	mov    -0x10(%ebp),%eax
			return r;//
		return envid;
	}
	//panic("sfork not implemented");
	//return -E_INVAL;
}
  801afa:	83 c4 1c             	add    $0x1c,%esp
  801afd:	5b                   	pop    %ebx
  801afe:	5e                   	pop    %esi
  801aff:	5f                   	pop    %edi
  801b00:	5d                   	pop    %ebp
  801b01:	c3                   	ret    

00801b02 <pgfault>:
// Custom page fault handler - if faulting page is copy-on-write,
// map in our own private writable copy.
//
static void
pgfault(struct UTrapframe *utf)
{
  801b02:	55                   	push   %ebp
  801b03:	89 e5                	mov    %esp,%ebp
  801b05:	56                   	push   %esi
  801b06:	53                   	push   %ebx
  801b07:	83 ec 20             	sub    $0x20,%esp
  801b0a:	8b 4d 08             	mov    0x8(%ebp),%ecx
	void *addr = (void *) utf->utf_fault_va;
	uint32_t err = utf->utf_err;
  801b0d:	8b 71 04             	mov    0x4(%ecx),%esi

	// LAB 4: Your code here.
	pde_t *pde;
	pte_t *pte;
	uint32_t *va,*srcva,*dstva;
	pde =(pde_t*) &vpd[VPD(addr)];
  801b10:	8b 19                	mov    (%ecx),%ebx
  801b12:	89 d8                	mov    %ebx,%eax
  801b14:	c1 e8 16             	shr    $0x16,%eax
  801b17:	c1 e0 02             	shl    $0x2,%eax
  801b1a:	8d 90 00 d0 7b ef    	lea    -0x10843000(%eax),%edx
	if(*pde&PTE_P)
  801b20:	f6 80 00 d0 7b ef 01 	testb  $0x1,-0x10843000(%eax)
  801b27:	74 16                	je     801b3f <pgfault+0x3d>
	{
		pte=(pte_t*)&vpt[VPN(addr)];
  801b29:	89 d8                	mov    %ebx,%eax
  801b2b:	c1 e8 0c             	shr    $0xc,%eax
  801b2e:	8d 04 85 00 00 40 ef 	lea    -0x10c00000(,%eax,4),%eax
	else{
		cprintf("addr=%x err=%x *pde=%x utf_eip=%x\n",(uint32_t)addr,err,*pde,utf->utf_eip);	
		panic("page table for fault va is not exist");
	}
	//cprintf("addr=%x err=%x *pte=%x utf_eip=%x\n",(uint32_t)addr,err,*pte,utf->utf_eip);
	if(!(err&FEC_WR)||!(*pte&PTE_COW))
  801b35:	f7 c6 02 00 00 00    	test   $0x2,%esi
  801b3b:	75 3f                	jne    801b7c <pgfault+0x7a>
  801b3d:	eb 43                	jmp    801b82 <pgfault+0x80>
	if(*pde&PTE_P)
	{
		pte=(pte_t*)&vpt[VPN(addr)];
	}
	else{
		cprintf("addr=%x err=%x *pde=%x utf_eip=%x\n",(uint32_t)addr,err,*pde,utf->utf_eip);	
  801b3f:	8b 41 28             	mov    0x28(%ecx),%eax
  801b42:	8b 12                	mov    (%edx),%edx
  801b44:	89 44 24 10          	mov    %eax,0x10(%esp)
  801b48:	89 54 24 0c          	mov    %edx,0xc(%esp)
  801b4c:	89 74 24 08          	mov    %esi,0x8(%esp)
  801b50:	89 5c 24 04          	mov    %ebx,0x4(%esp)
  801b54:	c7 04 24 70 26 81 00 	movl   $0x812670,(%esp)
  801b5b:	e8 19 ee ff ff       	call   800979 <cprintf>
		panic("page table for fault va is not exist");
  801b60:	c7 44 24 08 94 26 81 	movl   $0x812694,0x8(%esp)
  801b67:	00 
  801b68:	c7 44 24 04 27 00 00 	movl   $0x27,0x4(%esp)
  801b6f:	00 
  801b70:	c7 04 24 0a 27 81 00 	movl   $0x81270a,(%esp)
  801b77:	e8 30 ed ff ff       	call   8008ac <_panic>
	}
	//cprintf("addr=%x err=%x *pte=%x utf_eip=%x\n",(uint32_t)addr,err,*pte,utf->utf_eip);
	if(!(err&FEC_WR)||!(*pte&PTE_COW))
  801b7c:	f6 40 01 08          	testb  $0x8,0x1(%eax)
  801b80:	75 49                	jne    801bcb <pgfault+0xc9>
	{	
		cprintf("envid=%x addr=%x err=%x *pte=%x utf_eip=%x\n",env->env_id,(uint32_t)addr,err,*pte,utf->utf_eip);
  801b82:	8b 51 28             	mov    0x28(%ecx),%edx
  801b85:	8b 08                	mov    (%eax),%ecx
  801b87:	a1 b4 e5 b3 00       	mov    0xb3e5b4,%eax
  801b8c:	8b 40 4c             	mov    0x4c(%eax),%eax
  801b8f:	89 54 24 14          	mov    %edx,0x14(%esp)
  801b93:	89 4c 24 10          	mov    %ecx,0x10(%esp)
  801b97:	89 74 24 0c          	mov    %esi,0xc(%esp)
  801b9b:	89 5c 24 08          	mov    %ebx,0x8(%esp)
  801b9f:	89 44 24 04          	mov    %eax,0x4(%esp)
  801ba3:	c7 04 24 bc 26 81 00 	movl   $0x8126bc,(%esp)
  801baa:	e8 ca ed ff ff       	call   800979 <cprintf>
		panic("faulting access is illegle");
  801baf:	c7 44 24 08 25 27 81 	movl   $0x812725,0x8(%esp)
  801bb6:	00 
  801bb7:	c7 44 24 04 2d 00 00 	movl   $0x2d,0x4(%esp)
  801bbe:	00 
  801bbf:	c7 04 24 0a 27 81 00 	movl   $0x81270a,(%esp)
  801bc6:	e8 e1 ec ff ff       	call   8008ac <_panic>
	//   You should make three system calls.
	//   No need to explicitly delete the old page's mapping.

	// LAB 4: Your code here.
	//cprintf("pgfault:env_id=%x\n",env->env_id);
	if((r=sys_page_alloc(0,PFTEMP,PTE_W|PTE_U|PTE_P))<0)
  801bcb:	c7 44 24 08 07 00 00 	movl   $0x7,0x8(%esp)
  801bd2:	00 
  801bd3:	c7 44 24 04 00 f0 7f 	movl   $0x7ff000,0x4(%esp)
  801bda:	00 
  801bdb:	c7 04 24 00 00 00 00 	movl   $0x0,(%esp)
  801be2:	e8 33 fb ff ff       	call   80171a <sys_page_alloc>
  801be7:	85 c0                	test   %eax,%eax
  801be9:	79 20                	jns    801c0b <pgfault+0x109>
			//id=0id(curenv->env_id),env->env-id,env
		panic("alloc a page for PFTEMP failed:%e",r);
  801beb:	89 44 24 0c          	mov    %eax,0xc(%esp)
  801bef:	c7 44 24 08 e8 26 81 	movl   $0x8126e8,0x8(%esp)
  801bf6:	00 
  801bf7:	c7 44 24 04 3a 00 00 	movl   $0x3a,0x4(%esp)
  801bfe:	00 
  801bff:	c7 04 24 0a 27 81 00 	movl   $0x81270a,(%esp)
  801c06:	e8 a1 ec ff ff       	call   8008ac <_panic>
	//cprintf("PFTEMP=%x add=%x\n",PFTEMP,(uint32_t)addr&0xfffff000);
	srcva = (uint32_t*)((uint32_t)addr&0xfffff000);
  801c0b:	89 de                	mov    %ebx,%esi
  801c0d:	81 e6 00 f0 ff ff    	and    $0xfffff000,%esi
  801c13:	89 f2                	mov    %esi,%edx
	dstva = (uint32_t*)PFTEMP;
	//strncpy((char*)PFTEMP,(char*)((uint32_t)addr&0xfffff000),PGSIZE);
	for(;srcva<(uint32_t*)(ROUNDUP(addr,PGSIZE));srcva++)//strncpy
  801c15:	8d 83 ff 0f 00 00    	lea    0xfff(%ebx),%eax
  801c1b:	89 c3                	mov    %eax,%ebx
  801c1d:	81 e3 00 f0 ff ff    	and    $0xfffff000,%ebx
  801c23:	39 de                	cmp    %ebx,%esi
  801c25:	73 13                	jae    801c3a <pgfault+0x138>
  801c27:	b9 00 f0 7f 00       	mov    $0x7ff000,%ecx
	{
		*dstva=*srcva;
  801c2c:	8b 02                	mov    (%edx),%eax
  801c2e:	89 01                	mov    %eax,(%ecx)
		dstva++;
  801c30:	83 c1 04             	add    $0x4,%ecx
		panic("alloc a page for PFTEMP failed:%e",r);
	//cprintf("PFTEMP=%x add=%x\n",PFTEMP,(uint32_t)addr&0xfffff000);
	srcva = (uint32_t*)((uint32_t)addr&0xfffff000);
	dstva = (uint32_t*)PFTEMP;
	//strncpy((char*)PFTEMP,(char*)((uint32_t)addr&0xfffff000),PGSIZE);
	for(;srcva<(uint32_t*)(ROUNDUP(addr,PGSIZE));srcva++)//strncpy
  801c33:	83 c2 04             	add    $0x4,%edx
  801c36:	39 da                	cmp    %ebx,%edx
  801c38:	72 f2                	jb     801c2c <pgfault+0x12a>
	{
		*dstva=*srcva;
		dstva++;
	}
	if((r=sys_page_map(0,(void*)PFTEMP,0,(void*)((uint32_t)addr&0xfffff000),PTE_W|PTE_U|PTE_P))<0)
  801c3a:	c7 44 24 10 07 00 00 	movl   $0x7,0x10(%esp)
  801c41:	00 
  801c42:	89 74 24 0c          	mov    %esi,0xc(%esp)
  801c46:	c7 44 24 08 00 00 00 	movl   $0x0,0x8(%esp)
  801c4d:	00 
  801c4e:	c7 44 24 04 00 f0 7f 	movl   $0x7ff000,0x4(%esp)
  801c55:	00 
  801c56:	c7 04 24 00 00 00 00 	movl   $0x0,(%esp)
  801c5d:	e8 5a fa ff ff       	call   8016bc <sys_page_map>
  801c62:	85 c0                	test   %eax,%eax
  801c64:	79 1c                	jns    801c82 <pgfault+0x180>
			//id=0id(curenv->env_id),env->env-id,env
		panic("page mapping failed");
  801c66:	c7 44 24 08 40 27 81 	movl   $0x812740,0x8(%esp)
  801c6d:	00 
  801c6e:	c7 44 24 04 46 00 00 	movl   $0x46,0x4(%esp)
  801c75:	00 
  801c76:	c7 04 24 0a 27 81 00 	movl   $0x81270a,(%esp)
  801c7d:	e8 2a ec ff ff       	call   8008ac <_panic>
	//panic("pgfault not implemented");
}
  801c82:	83 c4 20             	add    $0x20,%esp
  801c85:	5b                   	pop    %ebx
  801c86:	5e                   	pop    %esi
  801c87:	5d                   	pop    %ebp
  801c88:	c3                   	ret    

00801c89 <fork>:
//   Neither user exception stack should ever be marked copy-on-write,
//   so you must allocate a new page for the child's user exception stack.
//
envid_t
fork(void)
{
  801c89:	55                   	push   %ebp
  801c8a:	89 e5                	mov    %esp,%ebp
  801c8c:	56                   	push   %esi
  801c8d:	53                   	push   %ebx
  801c8e:	83 ec 10             	sub    $0x10,%esp
  801c91:	ba 07 00 00 00       	mov    $0x7,%edx
  801c96:	89 d0                	mov    %edx,%eax
  801c98:	cd 30                	int    $0x30
  801c9a:	89 c6                	mov    %eax,%esi
	pte_t *pte;
	unsigned i;
	uint32_t addr;
	envid_t envid;
	envid = sys_exofork();//
	if(envid < 0)
  801c9c:	85 c0                	test   %eax,%eax
  801c9e:	79 20                	jns    801cc0 <fork+0x37>
		panic("sys_exofork: %e", envid);
  801ca0:	89 44 24 0c          	mov    %eax,0xc(%esp)
  801ca4:	c7 44 24 08 15 27 81 	movl   $0x812715,0x8(%esp)
  801cab:	00 
  801cac:	c7 44 24 04 8f 00 00 	movl   $0x8f,0x4(%esp)
  801cb3:	00 
  801cb4:	c7 04 24 0a 27 81 00 	movl   $0x81270a,(%esp)
  801cbb:	e8 ec eb ff ff       	call   8008ac <_panic>
	if(envid==0)//
  801cc0:	85 c0                	test   %eax,%eax
  801cc2:	75 21                	jne    801ce5 <fork+0x5c>
	{
		env = &envs[ENVX(sys_getenvid())];
  801cc4:	e8 e4 fa ff ff       	call   8017ad <sys_getenvid>
  801cc9:	25 ff 03 00 00       	and    $0x3ff,%eax
  801cce:	6b c0 7c             	imul   $0x7c,%eax,%eax
  801cd1:	05 00 00 c0 ee       	add    $0xeec00000,%eax
  801cd6:	a3 b4 e5 b3 00       	mov    %eax,0xb3e5b4
  801cdb:	b8 00 00 00 00       	mov    $0x0,%eax
  801ce0:	e9 9e 00 00 00       	jmp    801d83 <fork+0xfa>
		return 0;
	}
	else{//
		set_pgfault_handler(pgfault);//
  801ce5:	c7 04 24 02 1b 80 00 	movl   $0x801b02,(%esp)
  801cec:	e8 97 12 00 00       	call   802f88 <set_pgfault_handler>
  801cf1:	bb 00 00 00 00       	mov    $0x0,%ebx
  801cf6:	eb 08                	jmp    801d00 <fork+0x77>
		for(i=0;i<(unsigned)VPN(UTOP);i++)//writable or copy-to-write
		{
			if(i==(unsigned)VPN(UXSTACKTOP-PGSIZE))//
  801cf8:	81 fb ff eb 0e 00    	cmp    $0xeebff,%ebx
  801cfe:	74 3d                	je     801d3d <fork+0xb4>
				continue;
  801d00:	89 da                	mov    %ebx,%edx
  801d02:	c1 e2 0c             	shl    $0xc,%edx
			addr=i*PGSIZE;
			pde =(pde_t*) &vpd[VPD(addr)];
  801d05:	89 d0                	mov    %edx,%eax
  801d07:	c1 e8 16             	shr    $0x16,%eax
			if(*pde&PTE_P)//
  801d0a:	f6 04 85 00 d0 7b ef 	testb  $0x1,-0x10843000(,%eax,4)
  801d11:	01 
  801d12:	74 1e                	je     801d32 <fork+0xa9>
			{
				pte=(pte_t*)&vpt[VPN(addr)];
  801d14:	89 d0                	mov    %edx,%eax
  801d16:	c1 e8 0a             	shr    $0xa,%eax
			}
			else    continue;
			if((*pte&PTE_W)||(*pte&PTE_COW))
  801d19:	f7 80 00 00 40 ef 02 	testl  $0x802,-0x10c00000(%eax)
  801d20:	08 00 00 
  801d23:	74 0d                	je     801d32 <fork+0xa9>
			{
				if((r=duppage(envid,i))<0)
  801d25:	89 da                	mov    %ebx,%edx
  801d27:	89 f0                	mov    %esi,%eax
  801d29:	e8 12 fb ff ff       	call   801840 <duppage>
  801d2e:	85 c0                	test   %eax,%eax
  801d30:	78 51                	js     801d83 <fork+0xfa>
		env = &envs[ENVX(sys_getenvid())];
		return 0;
	}
	else{//
		set_pgfault_handler(pgfault);//
		for(i=0;i<(unsigned)VPN(UTOP);i++)//writable or copy-to-write
  801d32:	83 c3 01             	add    $0x1,%ebx
  801d35:	81 fb 00 ec 0e 00    	cmp    $0xeec00,%ebx
  801d3b:	75 bb                	jne    801cf8 <fork+0x6f>
			{
				if((r=duppage(envid,i))<0)
					return r;
			}
		}
		if((r=sys_page_alloc(envid,(void*)(UXSTACKTOP-PGSIZE),PTE_W|PTE_U|PTE_P))<0)
  801d3d:	c7 44 24 08 07 00 00 	movl   $0x7,0x8(%esp)
  801d44:	00 
  801d45:	c7 44 24 04 00 f0 bf 	movl   $0xeebff000,0x4(%esp)
  801d4c:	ee 
  801d4d:	89 34 24             	mov    %esi,(%esp)
  801d50:	e8 c5 f9 ff ff       	call   80171a <sys_page_alloc>
  801d55:	85 c0                	test   %eax,%eax
  801d57:	78 2a                	js     801d83 <fork+0xfa>
			return r;//
		if((r=sys_env_set_pgfault_upcall(envid,(void*)_pgfault_upcall))<0)
  801d59:	c7 44 24 04 0c 30 80 	movl   $0x80300c,0x4(%esp)
  801d60:	00 
  801d61:	89 34 24             	mov    %esi,(%esp)
  801d64:	e8 db f7 ff ff       	call   801544 <sys_env_set_pgfault_upcall>
  801d69:	85 c0                	test   %eax,%eax
  801d6b:	78 16                	js     801d83 <fork+0xfa>
			return r;//
		if((r=sys_env_set_status(envid,ENV_RUNNABLE))<0)
  801d6d:	c7 44 24 04 01 00 00 	movl   $0x1,0x4(%esp)
  801d74:	00 
  801d75:	89 34 24             	mov    %esi,(%esp)
  801d78:	e8 83 f8 ff ff       	call   801600 <sys_env_set_status>
  801d7d:	85 c0                	test   %eax,%eax
  801d7f:	78 02                	js     801d83 <fork+0xfa>
  801d81:	89 f0                	mov    %esi,%eax
			return r;//
		return envid;
	}
	//panic("fork not implemented");
}
  801d83:	83 c4 10             	add    $0x10,%esp
  801d86:	5b                   	pop    %ebx
  801d87:	5e                   	pop    %esi
  801d88:	5d                   	pop    %ebp
  801d89:	c3                   	ret    
  801d8a:	00 00                	add    %al,(%eax)
  801d8c:	00 00                	add    %al,(%eax)
	...

00801d90 <ipc_send>:
//   Use sys_yield() to be CPU-friendly.
//   If 'pg' is null, pass sys_ipc_recv a value that it will understand
//   as meaning "no page".  (Zero is not the right value.)
void
ipc_send(envid_t to_env, uint32_t val, void *pg, int perm)
{
  801d90:	55                   	push   %ebp
  801d91:	89 e5                	mov    %esp,%ebp
  801d93:	57                   	push   %edi
  801d94:	56                   	push   %esi
  801d95:	53                   	push   %ebx
  801d96:	83 ec 1c             	sub    $0x1c,%esp
  801d99:	8b 75 08             	mov    0x8(%ebp),%esi
  801d9c:	8b 7d 14             	mov    0x14(%ebp),%edi
	// LAB 4: Your code here.
	int r,i=0;
	env = &envs[ENVX(sys_getenvid())];
  801d9f:	e8 09 fa ff ff       	call   8017ad <sys_getenvid>
  801da4:	25 ff 03 00 00       	and    $0x3ff,%eax
  801da9:	6b c0 7c             	imul   $0x7c,%eax,%eax
  801dac:	05 00 00 c0 ee       	add    $0xeec00000,%eax
  801db1:	a3 b4 e5 b3 00       	mov    %eax,0xb3e5b4
	do{
		//cprintf("%x send value to %x\n",env->env_id,to_env);
		env = &envs[ENVX(sys_getenvid())];
  801db6:	e8 f2 f9 ff ff       	call   8017ad <sys_getenvid>
  801dbb:	25 ff 03 00 00       	and    $0x3ff,%eax
  801dc0:	6b c0 7c             	imul   $0x7c,%eax,%eax
  801dc3:	05 00 00 c0 ee       	add    $0xeec00000,%eax
  801dc8:	a3 b4 e5 b3 00       	mov    %eax,0xb3e5b4
		if(env->env_id==to_env){
  801dcd:	8b 40 4c             	mov    0x4c(%eax),%eax
  801dd0:	39 f0                	cmp    %esi,%eax
  801dd2:	75 0e                	jne    801de2 <ipc_send+0x52>
			cprintf("send:the reciver is sender\n");
  801dd4:	c7 04 24 54 27 81 00 	movl   $0x812754,(%esp)
  801ddb:	e8 99 eb ff ff       	call   800979 <cprintf>
  801de0:	eb 5a                	jmp    801e3c <ipc_send+0xac>
			return;
		}
		if((r=sys_ipc_try_send(to_env,val,pg,perm))<0)
  801de2:	89 7c 24 0c          	mov    %edi,0xc(%esp)
  801de6:	8b 45 10             	mov    0x10(%ebp),%eax
  801de9:	89 44 24 08          	mov    %eax,0x8(%esp)
  801ded:	8b 45 0c             	mov    0xc(%ebp),%eax
  801df0:	89 44 24 04          	mov    %eax,0x4(%esp)
  801df4:	89 34 24             	mov    %esi,(%esp)
  801df7:	e8 10 f7 ff ff       	call   80150c <sys_ipc_try_send>
  801dfc:	89 c3                	mov    %eax,%ebx
  801dfe:	85 c0                	test   %eax,%eax
  801e00:	79 25                	jns    801e27 <ipc_send+0x97>
		{	
			if(r!=-E_IPC_NOT_RECV)
  801e02:	83 f8 f9             	cmp    $0xfffffff9,%eax
  801e05:	74 2b                	je     801e32 <ipc_send+0xa2>
				panic("send error:%e",r);
  801e07:	89 44 24 0c          	mov    %eax,0xc(%esp)
  801e0b:	c7 44 24 08 70 27 81 	movl   $0x812770,0x8(%esp)
  801e12:	00 
  801e13:	c7 44 24 04 53 00 00 	movl   $0x53,0x4(%esp)
  801e1a:	00 
  801e1b:	c7 04 24 7e 27 81 00 	movl   $0x81277e,(%esp)
  801e22:	e8 85 ea ff ff       	call   8008ac <_panic>
		}
			sys_yield();
  801e27:	e8 4d f9 ff ff       	call   801779 <sys_yield>
		
	}while(r!=0);
  801e2c:	85 db                	test   %ebx,%ebx
  801e2e:	75 86                	jne    801db6 <ipc_send+0x26>
  801e30:	eb 0a                	jmp    801e3c <ipc_send+0xac>
		if((r=sys_ipc_try_send(to_env,val,pg,perm))<0)
		{	
			if(r!=-E_IPC_NOT_RECV)
				panic("send error:%e",r);
		}
			sys_yield();
  801e32:	e8 42 f9 ff ff       	call   801779 <sys_yield>
  801e37:	e9 7a ff ff ff       	jmp    801db6 <ipc_send+0x26>
		
	}while(r!=0);
	return;
	//panic("ipc_send not implemented");
}
  801e3c:	83 c4 1c             	add    $0x1c,%esp
  801e3f:	5b                   	pop    %ebx
  801e40:	5e                   	pop    %esi
  801e41:	5f                   	pop    %edi
  801e42:	5d                   	pop    %ebp
  801e43:	c3                   	ret    

00801e44 <ipc_recv>:
//   If 'pg' is null, pass sys_ipc_recv a value that it will understand
//   as meaning "no page".  (Zero is not the right value, since that's
//   a perfectly valid place to map a page.)
int32_t
ipc_recv(envid_t *from_env_store, void *pg, int *perm_store)
{
  801e44:	55                   	push   %ebp
  801e45:	89 e5                	mov    %esp,%ebp
  801e47:	57                   	push   %edi
  801e48:	56                   	push   %esi
  801e49:	53                   	push   %ebx
  801e4a:	83 ec 0c             	sub    $0xc,%esp
  801e4d:	8b 75 08             	mov    0x8(%ebp),%esi
  801e50:	8b 7d 10             	mov    0x10(%ebp),%edi
	// LAB 4: Your code here.
	int r;
	void *dstva=NULL;
	if(pg)
		dstva=pg;
	env = &envs[ENVX(sys_getenvid())];
  801e53:	e8 55 f9 ff ff       	call   8017ad <sys_getenvid>
  801e58:	25 ff 03 00 00       	and    $0x3ff,%eax
  801e5d:	6b c0 7c             	imul   $0x7c,%eax,%eax
  801e60:	05 00 00 c0 ee       	add    $0xeec00000,%eax
  801e65:	a3 b4 e5 b3 00       	mov    %eax,0xb3e5b4
	if(from_env_store&&(env->env_id==*from_env_store))
  801e6a:	85 f6                	test   %esi,%esi
  801e6c:	74 29                	je     801e97 <ipc_recv+0x53>
  801e6e:	8b 40 4c             	mov    0x4c(%eax),%eax
  801e71:	3b 06                	cmp    (%esi),%eax
  801e73:	75 22                	jne    801e97 <ipc_recv+0x53>
	{
		*from_env_store=0;
  801e75:	c7 06 00 00 00 00    	movl   $0x0,(%esi)
		*perm_store=0;
  801e7b:	c7 07 00 00 00 00    	movl   $0x0,(%edi)
		cprintf("send:the reciver is sender\n");
  801e81:	c7 04 24 54 27 81 00 	movl   $0x812754,(%esp)
  801e88:	e8 ec ea ff ff       	call   800979 <cprintf>
  801e8d:	bb 00 00 00 00       	mov    $0x0,%ebx
  801e92:	e9 8a 00 00 00       	jmp    801f21 <ipc_recv+0xdd>
		return 0;
	}
	env = &envs[ENVX(sys_getenvid())];
  801e97:	e8 11 f9 ff ff       	call   8017ad <sys_getenvid>
  801e9c:	25 ff 03 00 00       	and    $0x3ff,%eax
  801ea1:	6b c0 7c             	imul   $0x7c,%eax,%eax
  801ea4:	05 00 00 c0 ee       	add    $0xeec00000,%eax
  801ea9:	a3 b4 e5 b3 00       	mov    %eax,0xb3e5b4
	if((r=sys_ipc_recv(dstva))<0)
  801eae:	8b 45 0c             	mov    0xc(%ebp),%eax
  801eb1:	89 04 24             	mov    %eax,(%esp)
  801eb4:	e8 f6 f5 ff ff       	call   8014af <sys_ipc_recv>
  801eb9:	89 c3                	mov    %eax,%ebx
  801ebb:	85 c0                	test   %eax,%eax
  801ebd:	79 1a                	jns    801ed9 <ipc_recv+0x95>
	{
		*from_env_store=0;
  801ebf:	c7 06 00 00 00 00    	movl   $0x0,(%esi)
		*perm_store=0;
  801ec5:	c7 07 00 00 00 00    	movl   $0x0,(%edi)
		cprintf("reciver failed\n");
  801ecb:	c7 04 24 88 27 81 00 	movl   $0x812788,(%esp)
  801ed2:	e8 a2 ea ff ff       	call   800979 <cprintf>
  801ed7:	eb 48                	jmp    801f21 <ipc_recv+0xdd>
		return r;
	}
	else{//
		env = &envs[ENVX(sys_getenvid())];
  801ed9:	e8 cf f8 ff ff       	call   8017ad <sys_getenvid>
  801ede:	25 ff 03 00 00       	and    $0x3ff,%eax
  801ee3:	6b c0 7c             	imul   $0x7c,%eax,%eax
  801ee6:	05 00 00 c0 ee       	add    $0xeec00000,%eax
  801eeb:	a3 b4 e5 b3 00       	mov    %eax,0xb3e5b4
		if(from_env_store)
  801ef0:	85 f6                	test   %esi,%esi
  801ef2:	74 05                	je     801ef9 <ipc_recv+0xb5>
			*from_env_store=env->env_ipc_from;	
  801ef4:	8b 40 74             	mov    0x74(%eax),%eax
  801ef7:	89 06                	mov    %eax,(%esi)
		if(perm_store)
  801ef9:	85 ff                	test   %edi,%edi
  801efb:	74 0a                	je     801f07 <ipc_recv+0xc3>
			*perm_store=env->env_ipc_perm;
  801efd:	a1 b4 e5 b3 00       	mov    0xb3e5b4,%eax
  801f02:	8b 40 78             	mov    0x78(%eax),%eax
  801f05:	89 07                	mov    %eax,(%edi)
		env = &envs[ENVX(sys_getenvid())];
  801f07:	e8 a1 f8 ff ff       	call   8017ad <sys_getenvid>
  801f0c:	25 ff 03 00 00       	and    $0x3ff,%eax
  801f11:	6b c0 7c             	imul   $0x7c,%eax,%eax
  801f14:	05 00 00 c0 ee       	add    $0xeec00000,%eax
  801f19:	a3 b4 e5 b3 00       	mov    %eax,0xb3e5b4
		return env->env_ipc_value;
  801f1e:	8b 58 70             	mov    0x70(%eax),%ebx
	}
	//panic("ipc_recv not implemented");
	return 0;
}
  801f21:	89 d8                	mov    %ebx,%eax
  801f23:	83 c4 0c             	add    $0xc,%esp
  801f26:	5b                   	pop    %ebx
  801f27:	5e                   	pop    %esi
  801f28:	5f                   	pop    %edi
  801f29:	5d                   	pop    %ebp
  801f2a:	c3                   	ret    
  801f2b:	00 00                	add    %al,(%eax)
  801f2d:	00 00                	add    %al,(%eax)
	...

00801f30 <fd2num>:
// File descriptor manipulators
// --------------------------------------------------------------

int
fd2num(struct Fd *fd)
{
  801f30:	55                   	push   %ebp
  801f31:	89 e5                	mov    %esp,%ebp
  801f33:	8b 45 08             	mov    0x8(%ebp),%eax
  801f36:	05 00 00 00 30       	add    $0x30000000,%eax
  801f3b:	c1 e8 0c             	shr    $0xc,%eax
	return ((uintptr_t) fd - FDTABLE) / PGSIZE;
}
  801f3e:	5d                   	pop    %ebp
  801f3f:	c3                   	ret    

00801f40 <fd2data>:

char*
fd2data(struct Fd *fd)
{
  801f40:	55                   	push   %ebp
  801f41:	89 e5                	mov    %esp,%ebp
  801f43:	83 ec 04             	sub    $0x4,%esp
	return INDEX2DATA(fd2num(fd));
  801f46:	8b 45 08             	mov    0x8(%ebp),%eax
  801f49:	89 04 24             	mov    %eax,(%esp)
  801f4c:	e8 df ff ff ff       	call   801f30 <fd2num>
  801f51:	c1 e0 0c             	shl    $0xc,%eax
  801f54:	2d 00 00 fe 2f       	sub    $0x2ffe0000,%eax
}
  801f59:	c9                   	leave  
  801f5a:	c3                   	ret    

00801f5b <fd_alloc>:
// Returns 0 on success, < 0 on error.  Errors are:
//	-E_MAX_FD: no more file descriptors
// On error, *fd_store is set to 0.
int
fd_alloc(struct Fd **fd_store)
{
  801f5b:	55                   	push   %ebp
  801f5c:	89 e5                	mov    %esp,%ebp
  801f5e:	53                   	push   %ebx
  801f5f:	8b 5d 08             	mov    0x8(%ebp),%ebx
  801f62:	ba 00 00 00 d0       	mov    $0xd0000000,%edx
  801f67:	89 d1                	mov    %edx,%ecx
	int i;
	struct Fd *fd;

	for (i = 0; i < MAXFD; i++) {
		fd = INDEX2FD(i);
		if ((vpd[PDX(fd)] & PTE_P) == 0 || (vpt[VPN(fd)] & PTE_P) == 0) {
  801f69:	89 d0                	mov    %edx,%eax
  801f6b:	c1 e8 16             	shr    $0x16,%eax
  801f6e:	8b 04 85 00 d0 7b ef 	mov    -0x10843000(,%eax,4),%eax
  801f75:	a8 01                	test   $0x1,%al
  801f77:	74 10                	je     801f89 <fd_alloc+0x2e>
  801f79:	89 d0                	mov    %edx,%eax
  801f7b:	c1 e8 0c             	shr    $0xc,%eax
  801f7e:	8b 04 85 00 00 40 ef 	mov    -0x10c00000(,%eax,4),%eax
  801f85:	a8 01                	test   $0x1,%al
  801f87:	75 09                	jne    801f92 <fd_alloc+0x37>
			*fd_store = fd;
  801f89:	89 0b                	mov    %ecx,(%ebx)
  801f8b:	b8 00 00 00 00       	mov    $0x0,%eax
  801f90:	eb 19                	jmp    801fab <fd_alloc+0x50>
			return 0;
  801f92:	81 c2 00 10 00 00    	add    $0x1000,%edx
fd_alloc(struct Fd **fd_store)
{
	int i;
	struct Fd *fd;

	for (i = 0; i < MAXFD; i++) {
  801f98:	81 fa 00 00 02 d0    	cmp    $0xd0020000,%edx
  801f9e:	75 c7                	jne    801f67 <fd_alloc+0xc>
		if ((vpd[PDX(fd)] & PTE_P) == 0 || (vpt[VPN(fd)] & PTE_P) == 0) {
			*fd_store = fd;
			return 0;
		}
	}
	*fd_store = 0;
  801fa0:	c7 03 00 00 00 00    	movl   $0x0,(%ebx)
  801fa6:	b8 f6 ff ff ff       	mov    $0xfffffff6,%eax
	return -E_MAX_OPEN;
}
  801fab:	5b                   	pop    %ebx
  801fac:	5d                   	pop    %ebp
  801fad:	c3                   	ret    

00801fae <fd_lookup>:
// Returns 0 on success (the page is in range and mapped), < 0 on error.
// Errors are:
//	-E_INVAL: fdnum was either not in range or not mapped.
int
fd_lookup(int fdnum, struct Fd **fd_store)
{
  801fae:	55                   	push   %ebp
  801faf:	89 e5                	mov    %esp,%ebp
	struct Fd *fd;

	if (fdnum < 0 || fdnum >= MAXFD) {
  801fb1:	83 7d 08 1f          	cmpl   $0x1f,0x8(%ebp)
  801fb5:	77 38                	ja     801fef <fd_lookup+0x41>
		if (debug)
			cprintf("[%08x] bad fd %d\n", env->env_id, fd);
		return -E_INVAL;
	}
	fd = INDEX2FD(fdnum);
  801fb7:	8b 45 08             	mov    0x8(%ebp),%eax
  801fba:	c1 e0 0c             	shl    $0xc,%eax
  801fbd:	8d 90 00 00 00 d0    	lea    -0x30000000(%eax),%edx
	if (!(vpd[PDX(fd)] & PTE_P) || !(vpt[VPN(fd)] & PTE_P)) {
  801fc3:	89 d0                	mov    %edx,%eax
  801fc5:	c1 e8 16             	shr    $0x16,%eax
  801fc8:	8b 04 85 00 d0 7b ef 	mov    -0x10843000(,%eax,4),%eax
  801fcf:	a8 01                	test   $0x1,%al
  801fd1:	74 1c                	je     801fef <fd_lookup+0x41>
  801fd3:	89 d0                	mov    %edx,%eax
  801fd5:	c1 e8 0c             	shr    $0xc,%eax
  801fd8:	8b 04 85 00 00 40 ef 	mov    -0x10c00000(,%eax,4),%eax
  801fdf:	a8 01                	test   $0x1,%al
  801fe1:	74 0c                	je     801fef <fd_lookup+0x41>
		if (debug)
			cprintf("[%08x] closed fd %d\n", env->env_id, fd);
		return -E_INVAL;
	}
	*fd_store = fd;
  801fe3:	8b 45 0c             	mov    0xc(%ebp),%eax
  801fe6:	89 10                	mov    %edx,(%eax)
  801fe8:	b8 00 00 00 00       	mov    $0x0,%eax
  801fed:	eb 05                	jmp    801ff4 <fd_lookup+0x46>
	return 0;
  801fef:	b8 fd ff ff ff       	mov    $0xfffffffd,%eax
}
  801ff4:	5d                   	pop    %ebp
  801ff5:	c3                   	ret    

00801ff6 <seek>:
	return (*dev->dev_write)(fd, buf, n);
}

int
seek(int fdnum, off_t offset)
{
  801ff6:	55                   	push   %ebp
  801ff7:	89 e5                	mov    %esp,%ebp
  801ff9:	83 ec 18             	sub    $0x18,%esp
	int r;
	struct Fd *fd;

	if ((r = fd_lookup(fdnum, &fd)) < 0)
  801ffc:	8d 45 fc             	lea    -0x4(%ebp),%eax
  801fff:	89 44 24 04          	mov    %eax,0x4(%esp)
  802003:	8b 45 08             	mov    0x8(%ebp),%eax
  802006:	89 04 24             	mov    %eax,(%esp)
  802009:	e8 a0 ff ff ff       	call   801fae <fd_lookup>
  80200e:	85 c0                	test   %eax,%eax
  802010:	78 0e                	js     802020 <seek+0x2a>
		return r;
	fd->fd_offset = offset;
  802012:	8b 45 fc             	mov    -0x4(%ebp),%eax
  802015:	8b 55 0c             	mov    0xc(%ebp),%edx
  802018:	89 50 04             	mov    %edx,0x4(%eax)
  80201b:	b8 00 00 00 00       	mov    $0x0,%eax
	return 0;
}
  802020:	c9                   	leave  
  802021:	c3                   	ret    

00802022 <dev_lookup>:
	0
};

int
dev_lookup(int dev_id, struct Dev **dev)
{
  802022:	55                   	push   %ebp
  802023:	89 e5                	mov    %esp,%ebp
  802025:	53                   	push   %ebx
  802026:	83 ec 14             	sub    $0x14,%esp
  802029:	8b 4d 08             	mov    0x8(%ebp),%ecx
  80202c:	8b 5d 0c             	mov    0xc(%ebp),%ebx
	int i;
	for (i = 0; devtab[i]; i++)
  80202f:	ba 04 80 81 00       	mov    $0x818004,%edx
		if (devtab[i]->dev_id == dev_id) {
			*dev = devtab[i];
			return 0;
  802034:	b8 00 00 00 00       	mov    $0x0,%eax
int
dev_lookup(int dev_id, struct Dev **dev)
{
	int i;
	for (i = 0; devtab[i]; i++)
		if (devtab[i]->dev_id == dev_id) {
  802039:	39 0d 04 80 81 00    	cmp    %ecx,0x818004
  80203f:	75 11                	jne    802052 <dev_lookup+0x30>
  802041:	eb 04                	jmp    802047 <dev_lookup+0x25>
  802043:	39 0a                	cmp    %ecx,(%edx)
  802045:	75 0b                	jne    802052 <dev_lookup+0x30>
			*dev = devtab[i];
  802047:	89 13                	mov    %edx,(%ebx)
  802049:	b8 00 00 00 00       	mov    $0x0,%eax
  80204e:	66 90                	xchg   %ax,%ax
  802050:	eb 35                	jmp    802087 <dev_lookup+0x65>

int
dev_lookup(int dev_id, struct Dev **dev)
{
	int i;
	for (i = 0; devtab[i]; i++)
  802052:	83 c0 01             	add    $0x1,%eax
  802055:	8b 14 85 14 28 81 00 	mov    0x812814(,%eax,4),%edx
  80205c:	85 d2                	test   %edx,%edx
  80205e:	75 e3                	jne    802043 <dev_lookup+0x21>
		if (devtab[i]->dev_id == dev_id) {
			*dev = devtab[i];
			return 0;
		}
	cprintf("[%08x] unknown device type %d\n", env->env_id, dev_id);
  802060:	a1 b4 e5 b3 00       	mov    0xb3e5b4,%eax
  802065:	8b 40 4c             	mov    0x4c(%eax),%eax
  802068:	89 4c 24 08          	mov    %ecx,0x8(%esp)
  80206c:	89 44 24 04          	mov    %eax,0x4(%esp)
  802070:	c7 04 24 98 27 81 00 	movl   $0x812798,(%esp)
  802077:	e8 fd e8 ff ff       	call   800979 <cprintf>
	*dev = 0;
  80207c:	c7 03 00 00 00 00    	movl   $0x0,(%ebx)
  802082:	b8 fd ff ff ff       	mov    $0xfffffffd,%eax
	return -E_INVAL;
}
  802087:	83 c4 14             	add    $0x14,%esp
  80208a:	5b                   	pop    %ebx
  80208b:	5d                   	pop    %ebp
  80208c:	c3                   	ret    

0080208d <fstat>:
	return (*dev->dev_trunc)(fd, newsize);
}

int
fstat(int fdnum, struct Stat *stat)
{
  80208d:	55                   	push   %ebp
  80208e:	89 e5                	mov    %esp,%ebp
  802090:	83 ec 18             	sub    $0x18,%esp
	int r;
	struct Dev *dev;
	struct Fd *fd;

	if ((r = fd_lookup(fdnum, &fd)) < 0
  802093:	8d 45 f8             	lea    -0x8(%ebp),%eax
  802096:	89 44 24 04          	mov    %eax,0x4(%esp)
  80209a:	8b 45 08             	mov    0x8(%ebp),%eax
  80209d:	89 04 24             	mov    %eax,(%esp)
  8020a0:	e8 09 ff ff ff       	call   801fae <fd_lookup>
  8020a5:	89 c2                	mov    %eax,%edx
  8020a7:	85 c0                	test   %eax,%eax
  8020a9:	78 5a                	js     802105 <fstat+0x78>
  8020ab:	8d 45 fc             	lea    -0x4(%ebp),%eax
  8020ae:	89 44 24 04          	mov    %eax,0x4(%esp)
  8020b2:	8b 45 f8             	mov    -0x8(%ebp),%eax
  8020b5:	8b 00                	mov    (%eax),%eax
  8020b7:	89 04 24             	mov    %eax,(%esp)
  8020ba:	e8 63 ff ff ff       	call   802022 <dev_lookup>
  8020bf:	89 c2                	mov    %eax,%edx
  8020c1:	85 c0                	test   %eax,%eax
  8020c3:	78 40                	js     802105 <fstat+0x78>
	    || (r = dev_lookup(fd->fd_dev_id, &dev)) < 0)
		return r;
	if (!dev->dev_stat)
  8020c5:	ba f1 ff ff ff       	mov    $0xfffffff1,%edx
  8020ca:	8b 45 fc             	mov    -0x4(%ebp),%eax
  8020cd:	83 78 14 00          	cmpl   $0x0,0x14(%eax)
  8020d1:	74 32                	je     802105 <fstat+0x78>
		return -E_NOT_SUPP;
	stat->st_name[0] = 0;
  8020d3:	8b 45 0c             	mov    0xc(%ebp),%eax
  8020d6:	c6 00 00             	movb   $0x0,(%eax)
	stat->st_size = 0;
  8020d9:	c7 80 80 00 00 00 00 	movl   $0x0,0x80(%eax)
  8020e0:	00 00 00 
	stat->st_isdir = 0;
  8020e3:	c7 80 84 00 00 00 00 	movl   $0x0,0x84(%eax)
  8020ea:	00 00 00 
	stat->st_dev = dev;
  8020ed:	8b 55 fc             	mov    -0x4(%ebp),%edx
  8020f0:	89 90 88 00 00 00    	mov    %edx,0x88(%eax)
	return (*dev->dev_stat)(fd, stat);
  8020f6:	89 44 24 04          	mov    %eax,0x4(%esp)
  8020fa:	8b 45 f8             	mov    -0x8(%ebp),%eax
  8020fd:	89 04 24             	mov    %eax,(%esp)
  802100:	ff 52 14             	call   *0x14(%edx)
  802103:	89 c2                	mov    %eax,%edx
}
  802105:	89 d0                	mov    %edx,%eax
  802107:	c9                   	leave  
  802108:	c3                   	ret    

00802109 <ftruncate>:
	return 0;
}

int
ftruncate(int fdnum, off_t newsize)
{
  802109:	55                   	push   %ebp
  80210a:	89 e5                	mov    %esp,%ebp
  80210c:	53                   	push   %ebx
  80210d:	83 ec 24             	sub    $0x24,%esp
  802110:	8b 5d 08             	mov    0x8(%ebp),%ebx
	int r;
	struct Dev *dev;
	struct Fd *fd;
	if ((r = fd_lookup(fdnum, &fd)) < 0
  802113:	8d 45 f4             	lea    -0xc(%ebp),%eax
  802116:	89 44 24 04          	mov    %eax,0x4(%esp)
  80211a:	89 1c 24             	mov    %ebx,(%esp)
  80211d:	e8 8c fe ff ff       	call   801fae <fd_lookup>
  802122:	85 c0                	test   %eax,%eax
  802124:	78 61                	js     802187 <ftruncate+0x7e>
  802126:	8b 45 f4             	mov    -0xc(%ebp),%eax
  802129:	8b 10                	mov    (%eax),%edx
  80212b:	8d 45 f8             	lea    -0x8(%ebp),%eax
  80212e:	89 44 24 04          	mov    %eax,0x4(%esp)
  802132:	89 14 24             	mov    %edx,(%esp)
  802135:	e8 e8 fe ff ff       	call   802022 <dev_lookup>
  80213a:	85 c0                	test   %eax,%eax
  80213c:	78 49                	js     802187 <ftruncate+0x7e>
	    || (r = dev_lookup(fd->fd_dev_id, &dev)) < 0)
		return r;
	if ((fd->fd_omode & O_ACCMODE) == O_RDONLY) {
  80213e:	8b 4d f4             	mov    -0xc(%ebp),%ecx
  802141:	f6 41 08 03          	testb  $0x3,0x8(%ecx)
  802145:	75 23                	jne    80216a <ftruncate+0x61>
		cprintf("[%08x] ftruncate %d -- bad mode\n",
  802147:	a1 b4 e5 b3 00       	mov    0xb3e5b4,%eax
  80214c:	8b 40 4c             	mov    0x4c(%eax),%eax
  80214f:	89 5c 24 08          	mov    %ebx,0x8(%esp)
  802153:	89 44 24 04          	mov    %eax,0x4(%esp)
  802157:	c7 04 24 b8 27 81 00 	movl   $0x8127b8,(%esp)
  80215e:	e8 16 e8 ff ff       	call   800979 <cprintf>
  802163:	b8 fd ff ff ff       	mov    $0xfffffffd,%eax
  802168:	eb 1d                	jmp    802187 <ftruncate+0x7e>
			env->env_id, fdnum); 
		return -E_INVAL;
	}
	if (!dev->dev_trunc)
  80216a:	8b 55 f8             	mov    -0x8(%ebp),%edx
  80216d:	b8 f1 ff ff ff       	mov    $0xfffffff1,%eax
  802172:	83 7a 18 00          	cmpl   $0x0,0x18(%edx)
  802176:	74 0f                	je     802187 <ftruncate+0x7e>
		return -E_NOT_SUPP;
	return (*dev->dev_trunc)(fd, newsize);
  802178:	8b 42 18             	mov    0x18(%edx),%eax
  80217b:	8b 55 0c             	mov    0xc(%ebp),%edx
  80217e:	89 54 24 04          	mov    %edx,0x4(%esp)
  802182:	89 0c 24             	mov    %ecx,(%esp)
  802185:	ff d0                	call   *%eax
}
  802187:	83 c4 24             	add    $0x24,%esp
  80218a:	5b                   	pop    %ebx
  80218b:	5d                   	pop    %ebp
  80218c:	c3                   	ret    

0080218d <write>:
	return tot;
}

ssize_t
write(int fdnum, const void *buf, size_t n)
{
  80218d:	55                   	push   %ebp
  80218e:	89 e5                	mov    %esp,%ebp
  802190:	53                   	push   %ebx
  802191:	83 ec 24             	sub    $0x24,%esp
  802194:	8b 5d 08             	mov    0x8(%ebp),%ebx
	int r;
	struct Dev *dev;
	struct Fd *fd;

	if ((r = fd_lookup(fdnum, &fd)) < 0
  802197:	8d 45 f4             	lea    -0xc(%ebp),%eax
  80219a:	89 44 24 04          	mov    %eax,0x4(%esp)
  80219e:	89 1c 24             	mov    %ebx,(%esp)
  8021a1:	e8 08 fe ff ff       	call   801fae <fd_lookup>
  8021a6:	85 c0                	test   %eax,%eax
  8021a8:	78 68                	js     802212 <write+0x85>
  8021aa:	8b 45 f4             	mov    -0xc(%ebp),%eax
  8021ad:	8b 10                	mov    (%eax),%edx
  8021af:	8d 45 f8             	lea    -0x8(%ebp),%eax
  8021b2:	89 44 24 04          	mov    %eax,0x4(%esp)
  8021b6:	89 14 24             	mov    %edx,(%esp)
  8021b9:	e8 64 fe ff ff       	call   802022 <dev_lookup>
  8021be:	85 c0                	test   %eax,%eax
  8021c0:	78 50                	js     802212 <write+0x85>
	    || (r = dev_lookup(fd->fd_dev_id, &dev)) < 0)
		return r;
	if ((fd->fd_omode & O_ACCMODE) == O_RDONLY) {
  8021c2:	8b 4d f4             	mov    -0xc(%ebp),%ecx
  8021c5:	f6 41 08 03          	testb  $0x3,0x8(%ecx)
  8021c9:	75 23                	jne    8021ee <write+0x61>
		cprintf("[%08x] write %d -- bad mode\n", env->env_id, fdnum);
  8021cb:	a1 b4 e5 b3 00       	mov    0xb3e5b4,%eax
  8021d0:	8b 40 4c             	mov    0x4c(%eax),%eax
  8021d3:	89 5c 24 08          	mov    %ebx,0x8(%esp)
  8021d7:	89 44 24 04          	mov    %eax,0x4(%esp)
  8021db:	c7 04 24 d9 27 81 00 	movl   $0x8127d9,(%esp)
  8021e2:	e8 92 e7 ff ff       	call   800979 <cprintf>
  8021e7:	b8 fd ff ff ff       	mov    $0xfffffffd,%eax
  8021ec:	eb 24                	jmp    802212 <write+0x85>
		return -E_INVAL;
	}
	if (debug)
		cprintf("write %d %p %d via dev %s\n",
			fdnum, buf, n, dev->dev_name);
	if (!dev->dev_write)
  8021ee:	8b 55 f8             	mov    -0x8(%ebp),%edx
  8021f1:	b8 f1 ff ff ff       	mov    $0xfffffff1,%eax
  8021f6:	83 7a 0c 00          	cmpl   $0x0,0xc(%edx)
  8021fa:	74 16                	je     802212 <write+0x85>
		return -E_NOT_SUPP;
	return (*dev->dev_write)(fd, buf, n);
  8021fc:	8b 42 0c             	mov    0xc(%edx),%eax
  8021ff:	8b 55 10             	mov    0x10(%ebp),%edx
  802202:	89 54 24 08          	mov    %edx,0x8(%esp)
  802206:	8b 55 0c             	mov    0xc(%ebp),%edx
  802209:	89 54 24 04          	mov    %edx,0x4(%esp)
  80220d:	89 0c 24             	mov    %ecx,(%esp)
  802210:	ff d0                	call   *%eax
}
  802212:	83 c4 24             	add    $0x24,%esp
  802215:	5b                   	pop    %ebx
  802216:	5d                   	pop    %ebp
  802217:	c3                   	ret    

00802218 <read>:
	return r;
}

ssize_t
read(int fdnum, void *buf, size_t n)
{
  802218:	55                   	push   %ebp
  802219:	89 e5                	mov    %esp,%ebp
  80221b:	53                   	push   %ebx
  80221c:	83 ec 24             	sub    $0x24,%esp
  80221f:	8b 5d 08             	mov    0x8(%ebp),%ebx
	int r;
	struct Dev *dev;
	struct Fd *fd;

	if ((r = fd_lookup(fdnum, &fd)) < 0
  802222:	8d 45 f4             	lea    -0xc(%ebp),%eax
  802225:	89 44 24 04          	mov    %eax,0x4(%esp)
  802229:	89 1c 24             	mov    %ebx,(%esp)
  80222c:	e8 7d fd ff ff       	call   801fae <fd_lookup>
  802231:	85 c0                	test   %eax,%eax
  802233:	78 6d                	js     8022a2 <read+0x8a>
  802235:	8b 45 f4             	mov    -0xc(%ebp),%eax
  802238:	8b 10                	mov    (%eax),%edx
  80223a:	8d 45 f8             	lea    -0x8(%ebp),%eax
  80223d:	89 44 24 04          	mov    %eax,0x4(%esp)
  802241:	89 14 24             	mov    %edx,(%esp)
  802244:	e8 d9 fd ff ff       	call   802022 <dev_lookup>
  802249:	85 c0                	test   %eax,%eax
  80224b:	78 55                	js     8022a2 <read+0x8a>
	    || (r = dev_lookup(fd->fd_dev_id, &dev)) < 0)
		return r;
	if ((fd->fd_omode & O_ACCMODE) == O_WRONLY) {
  80224d:	8b 4d f4             	mov    -0xc(%ebp),%ecx
  802250:	8b 41 08             	mov    0x8(%ecx),%eax
  802253:	83 e0 03             	and    $0x3,%eax
  802256:	83 f8 01             	cmp    $0x1,%eax
  802259:	75 23                	jne    80227e <read+0x66>
		cprintf("[%08x] read %d -- bad mode\n", env->env_id, fdnum); 
  80225b:	a1 b4 e5 b3 00       	mov    0xb3e5b4,%eax
  802260:	8b 40 4c             	mov    0x4c(%eax),%eax
  802263:	89 5c 24 08          	mov    %ebx,0x8(%esp)
  802267:	89 44 24 04          	mov    %eax,0x4(%esp)
  80226b:	c7 04 24 f6 27 81 00 	movl   $0x8127f6,(%esp)
  802272:	e8 02 e7 ff ff       	call   800979 <cprintf>
  802277:	b8 fd ff ff ff       	mov    $0xfffffffd,%eax
  80227c:	eb 24                	jmp    8022a2 <read+0x8a>
		return -E_INVAL;
	}
	if (!dev->dev_read)
  80227e:	8b 55 f8             	mov    -0x8(%ebp),%edx
  802281:	b8 f1 ff ff ff       	mov    $0xfffffff1,%eax
  802286:	83 7a 08 00          	cmpl   $0x0,0x8(%edx)
  80228a:	74 16                	je     8022a2 <read+0x8a>
		return -E_NOT_SUPP;
	return (*dev->dev_read)(fd, buf, n);
  80228c:	8b 42 08             	mov    0x8(%edx),%eax
  80228f:	8b 55 10             	mov    0x10(%ebp),%edx
  802292:	89 54 24 08          	mov    %edx,0x8(%esp)
  802296:	8b 55 0c             	mov    0xc(%ebp),%edx
  802299:	89 54 24 04          	mov    %edx,0x4(%esp)
  80229d:	89 0c 24             	mov    %ecx,(%esp)
  8022a0:	ff d0                	call   *%eax
}
  8022a2:	83 c4 24             	add    $0x24,%esp
  8022a5:	5b                   	pop    %ebx
  8022a6:	5d                   	pop    %ebp
  8022a7:	c3                   	ret    

008022a8 <readn>:

ssize_t
readn(int fdnum, void *buf, size_t n)
{
  8022a8:	55                   	push   %ebp
  8022a9:	89 e5                	mov    %esp,%ebp
  8022ab:	57                   	push   %edi
  8022ac:	56                   	push   %esi
  8022ad:	53                   	push   %ebx
  8022ae:	83 ec 0c             	sub    $0xc,%esp
  8022b1:	8b 7d 0c             	mov    0xc(%ebp),%edi
  8022b4:	8b 75 10             	mov    0x10(%ebp),%esi
	int m, tot;

	for (tot = 0; tot < n; tot += m) {
  8022b7:	b8 00 00 00 00       	mov    $0x0,%eax
  8022bc:	85 f6                	test   %esi,%esi
  8022be:	74 36                	je     8022f6 <readn+0x4e>
  8022c0:	bb 00 00 00 00       	mov    $0x0,%ebx
  8022c5:	ba 00 00 00 00       	mov    $0x0,%edx
		m = read(fdnum, (char*)buf + tot, n - tot);
  8022ca:	89 f0                	mov    %esi,%eax
  8022cc:	29 d0                	sub    %edx,%eax
  8022ce:	89 44 24 08          	mov    %eax,0x8(%esp)
  8022d2:	8d 04 17             	lea    (%edi,%edx,1),%eax
  8022d5:	89 44 24 04          	mov    %eax,0x4(%esp)
  8022d9:	8b 45 08             	mov    0x8(%ebp),%eax
  8022dc:	89 04 24             	mov    %eax,(%esp)
  8022df:	e8 34 ff ff ff       	call   802218 <read>
		if (m < 0)
  8022e4:	85 c0                	test   %eax,%eax
  8022e6:	78 0e                	js     8022f6 <readn+0x4e>
			return m;
		if (m == 0)
  8022e8:	85 c0                	test   %eax,%eax
  8022ea:	74 08                	je     8022f4 <readn+0x4c>
ssize_t
readn(int fdnum, void *buf, size_t n)
{
	int m, tot;

	for (tot = 0; tot < n; tot += m) {
  8022ec:	01 c3                	add    %eax,%ebx
  8022ee:	89 da                	mov    %ebx,%edx
  8022f0:	39 f3                	cmp    %esi,%ebx
  8022f2:	72 d6                	jb     8022ca <readn+0x22>
  8022f4:	89 d8                	mov    %ebx,%eax
			return m;
		if (m == 0)
			break;
	}
	return tot;
}
  8022f6:	83 c4 0c             	add    $0xc,%esp
  8022f9:	5b                   	pop    %ebx
  8022fa:	5e                   	pop    %esi
  8022fb:	5f                   	pop    %edi
  8022fc:	5d                   	pop    %ebp
  8022fd:	c3                   	ret    

008022fe <fd_close>:
// If 'must_exist' is 1, then fd_close returns -E_INVAL when passed a
// closed or nonexistent file descriptor.
// Returns 0 on success, < 0 on error.
int
fd_close(struct Fd *fd, bool must_exist)
{
  8022fe:	55                   	push   %ebp
  8022ff:	89 e5                	mov    %esp,%ebp
  802301:	83 ec 28             	sub    $0x28,%esp
  802304:	89 5d f8             	mov    %ebx,-0x8(%ebp)
  802307:	89 75 fc             	mov    %esi,-0x4(%ebp)
  80230a:	8b 75 08             	mov    0x8(%ebp),%esi
	struct Fd *fd2;
	struct Dev *dev;
	int r;
	if ((r = fd_lookup(fd2num(fd), &fd2)) < 0
  80230d:	89 34 24             	mov    %esi,(%esp)
  802310:	e8 1b fc ff ff       	call   801f30 <fd2num>
  802315:	8d 55 f4             	lea    -0xc(%ebp),%edx
  802318:	89 54 24 04          	mov    %edx,0x4(%esp)
  80231c:	89 04 24             	mov    %eax,(%esp)
  80231f:	e8 8a fc ff ff       	call   801fae <fd_lookup>
  802324:	89 c3                	mov    %eax,%ebx
  802326:	85 c0                	test   %eax,%eax
  802328:	78 05                	js     80232f <fd_close+0x31>
  80232a:	3b 75 f4             	cmp    -0xc(%ebp),%esi
  80232d:	74 0d                	je     80233c <fd_close+0x3e>
	    || fd != fd2)
		return (must_exist ? r : 0);
  80232f:	83 7d 0c 00          	cmpl   $0x0,0xc(%ebp)
  802333:	75 44                	jne    802379 <fd_close+0x7b>
  802335:	bb 00 00 00 00       	mov    $0x0,%ebx
  80233a:	eb 3d                	jmp    802379 <fd_close+0x7b>
	if ((r = dev_lookup(fd->fd_dev_id, &dev)) >= 0) {
  80233c:	8d 45 f0             	lea    -0x10(%ebp),%eax
  80233f:	89 44 24 04          	mov    %eax,0x4(%esp)
  802343:	8b 06                	mov    (%esi),%eax
  802345:	89 04 24             	mov    %eax,(%esp)
  802348:	e8 d5 fc ff ff       	call   802022 <dev_lookup>
  80234d:	89 c3                	mov    %eax,%ebx
  80234f:	85 c0                	test   %eax,%eax
  802351:	78 16                	js     802369 <fd_close+0x6b>
		if (dev->dev_close)
  802353:	8b 45 f0             	mov    -0x10(%ebp),%eax
  802356:	8b 40 10             	mov    0x10(%eax),%eax
  802359:	bb 00 00 00 00       	mov    $0x0,%ebx
  80235e:	85 c0                	test   %eax,%eax
  802360:	74 07                	je     802369 <fd_close+0x6b>
			r = (*dev->dev_close)(fd);
  802362:	89 34 24             	mov    %esi,(%esp)
  802365:	ff d0                	call   *%eax
  802367:	89 c3                	mov    %eax,%ebx
		else
			r = 0;
	}
	// Make sure fd is unmapped.  Might be a no-op if
	// (*dev->dev_close)(fd) already unmapped it.
	(void) sys_page_unmap(0, fd);
  802369:	89 74 24 04          	mov    %esi,0x4(%esp)
  80236d:	c7 04 24 00 00 00 00 	movl   $0x0,(%esp)
  802374:	e8 e5 f2 ff ff       	call   80165e <sys_page_unmap>
	return r;
}
  802379:	89 d8                	mov    %ebx,%eax
  80237b:	8b 5d f8             	mov    -0x8(%ebp),%ebx
  80237e:	8b 75 fc             	mov    -0x4(%ebp),%esi
  802381:	89 ec                	mov    %ebp,%esp
  802383:	5d                   	pop    %ebp
  802384:	c3                   	ret    

00802385 <close>:
	return -E_INVAL;
}

int
close(int fdnum)
{
  802385:	55                   	push   %ebp
  802386:	89 e5                	mov    %esp,%ebp
  802388:	83 ec 18             	sub    $0x18,%esp
	struct Fd *fd;
	int r;

	if ((r = fd_lookup(fdnum, &fd)) < 0)
  80238b:	8d 45 fc             	lea    -0x4(%ebp),%eax
  80238e:	89 44 24 04          	mov    %eax,0x4(%esp)
  802392:	8b 45 08             	mov    0x8(%ebp),%eax
  802395:	89 04 24             	mov    %eax,(%esp)
  802398:	e8 11 fc ff ff       	call   801fae <fd_lookup>
  80239d:	85 c0                	test   %eax,%eax
  80239f:	78 13                	js     8023b4 <close+0x2f>
		return r;
	else
		return fd_close(fd, 1);
  8023a1:	c7 44 24 04 01 00 00 	movl   $0x1,0x4(%esp)
  8023a8:	00 
  8023a9:	8b 45 fc             	mov    -0x4(%ebp),%eax
  8023ac:	89 04 24             	mov    %eax,(%esp)
  8023af:	e8 4a ff ff ff       	call   8022fe <fd_close>
}
  8023b4:	c9                   	leave  
  8023b5:	c3                   	ret    

008023b6 <stat>:
	return (*dev->dev_stat)(fd, stat);
}

int
stat(const char *path, struct Stat *stat)
{
  8023b6:	55                   	push   %ebp
  8023b7:	89 e5                	mov    %esp,%ebp
  8023b9:	83 ec 18             	sub    $0x18,%esp
  8023bc:	89 5d f8             	mov    %ebx,-0x8(%ebp)
  8023bf:	89 75 fc             	mov    %esi,-0x4(%ebp)
	int fd, r;

	if ((fd = open(path, O_RDONLY)) < 0)
  8023c2:	c7 44 24 04 00 00 00 	movl   $0x0,0x4(%esp)
  8023c9:	00 
  8023ca:	8b 45 08             	mov    0x8(%ebp),%eax
  8023cd:	89 04 24             	mov    %eax,(%esp)
  8023d0:	e8 5a 03 00 00       	call   80272f <open>
  8023d5:	89 c6                	mov    %eax,%esi
  8023d7:	85 c0                	test   %eax,%eax
  8023d9:	78 1b                	js     8023f6 <stat+0x40>
		return fd;
	r = fstat(fd, stat);
  8023db:	8b 45 0c             	mov    0xc(%ebp),%eax
  8023de:	89 44 24 04          	mov    %eax,0x4(%esp)
  8023e2:	89 34 24             	mov    %esi,(%esp)
  8023e5:	e8 a3 fc ff ff       	call   80208d <fstat>
  8023ea:	89 c3                	mov    %eax,%ebx
	close(fd);
  8023ec:	89 34 24             	mov    %esi,(%esp)
  8023ef:	e8 91 ff ff ff       	call   802385 <close>
  8023f4:	89 de                	mov    %ebx,%esi
	return r;
}
  8023f6:	89 f0                	mov    %esi,%eax
  8023f8:	8b 5d f8             	mov    -0x8(%ebp),%ebx
  8023fb:	8b 75 fc             	mov    -0x4(%ebp),%esi
  8023fe:	89 ec                	mov    %ebp,%esp
  802400:	5d                   	pop    %ebp
  802401:	c3                   	ret    

00802402 <dup>:
// file and the file offset of the other.
// Closes any previously open file descriptor at 'newfdnum'.
// This is implemented using virtual memory tricks (of course!).
int
dup(int oldfdnum, int newfdnum)
{
  802402:	55                   	push   %ebp
  802403:	89 e5                	mov    %esp,%ebp
  802405:	83 ec 38             	sub    $0x38,%esp
  802408:	89 5d f4             	mov    %ebx,-0xc(%ebp)
  80240b:	89 75 f8             	mov    %esi,-0x8(%ebp)
  80240e:	89 7d fc             	mov    %edi,-0x4(%ebp)
  802411:	8b 7d 0c             	mov    0xc(%ebp),%edi
	int r;
	char *ova, *nva;
	pte_t pte;
	struct Fd *oldfd, *newfd;

	if ((r = fd_lookup(oldfdnum, &oldfd)) < 0)
  802414:	8d 45 f0             	lea    -0x10(%ebp),%eax
  802417:	89 44 24 04          	mov    %eax,0x4(%esp)
  80241b:	8b 45 08             	mov    0x8(%ebp),%eax
  80241e:	89 04 24             	mov    %eax,(%esp)
  802421:	e8 88 fb ff ff       	call   801fae <fd_lookup>
  802426:	89 c3                	mov    %eax,%ebx
  802428:	85 c0                	test   %eax,%eax
  80242a:	0f 88 e1 00 00 00    	js     802511 <dup+0x10f>
		return r;
	close(newfdnum);
  802430:	89 3c 24             	mov    %edi,(%esp)
  802433:	e8 4d ff ff ff       	call   802385 <close>

	newfd = INDEX2FD(newfdnum);
  802438:	89 f8                	mov    %edi,%eax
  80243a:	c1 e0 0c             	shl    $0xc,%eax
  80243d:	8d b0 00 00 00 d0    	lea    -0x30000000(%eax),%esi
	ova = fd2data(oldfd);
  802443:	8b 45 f0             	mov    -0x10(%ebp),%eax
  802446:	89 04 24             	mov    %eax,(%esp)
  802449:	e8 f2 fa ff ff       	call   801f40 <fd2data>
  80244e:	89 c3                	mov    %eax,%ebx
	nva = fd2data(newfd);
  802450:	89 34 24             	mov    %esi,(%esp)
  802453:	e8 e8 fa ff ff       	call   801f40 <fd2data>
  802458:	89 45 e0             	mov    %eax,-0x20(%ebp)

	if ((vpd[PDX(ova)] & PTE_P) && (vpt[VPN(ova)] & PTE_P))
  80245b:	89 d8                	mov    %ebx,%eax
  80245d:	c1 e8 16             	shr    $0x16,%eax
  802460:	8b 04 85 00 d0 7b ef 	mov    -0x10843000(,%eax,4),%eax
  802467:	a8 01                	test   $0x1,%al
  802469:	74 45                	je     8024b0 <dup+0xae>
  80246b:	89 da                	mov    %ebx,%edx
  80246d:	c1 ea 0c             	shr    $0xc,%edx
  802470:	8b 04 95 00 00 40 ef 	mov    -0x10c00000(,%edx,4),%eax
  802477:	a8 01                	test   $0x1,%al
  802479:	74 35                	je     8024b0 <dup+0xae>
		if ((r = sys_page_map(0, ova, 0, nva, vpt[VPN(ova)] & PTE_USER)) < 0)
  80247b:	8b 04 95 00 00 40 ef 	mov    -0x10c00000(,%edx,4),%eax
  802482:	25 07 0e 00 00       	and    $0xe07,%eax
  802487:	89 44 24 10          	mov    %eax,0x10(%esp)
  80248b:	8b 45 e0             	mov    -0x20(%ebp),%eax
  80248e:	89 44 24 0c          	mov    %eax,0xc(%esp)
  802492:	c7 44 24 08 00 00 00 	movl   $0x0,0x8(%esp)
  802499:	00 
  80249a:	89 5c 24 04          	mov    %ebx,0x4(%esp)
  80249e:	c7 04 24 00 00 00 00 	movl   $0x0,(%esp)
  8024a5:	e8 12 f2 ff ff       	call   8016bc <sys_page_map>
  8024aa:	89 c3                	mov    %eax,%ebx
  8024ac:	85 c0                	test   %eax,%eax
  8024ae:	78 3e                	js     8024ee <dup+0xec>
			goto err;
	if ((r = sys_page_map(0, oldfd, 0, newfd, vpt[VPN(oldfd)] & PTE_USER)) < 0)
  8024b0:	8b 55 f0             	mov    -0x10(%ebp),%edx
  8024b3:	89 d0                	mov    %edx,%eax
  8024b5:	c1 e8 0c             	shr    $0xc,%eax
  8024b8:	8b 04 85 00 00 40 ef 	mov    -0x10c00000(,%eax,4),%eax
  8024bf:	25 07 0e 00 00       	and    $0xe07,%eax
  8024c4:	89 44 24 10          	mov    %eax,0x10(%esp)
  8024c8:	89 74 24 0c          	mov    %esi,0xc(%esp)
  8024cc:	c7 44 24 08 00 00 00 	movl   $0x0,0x8(%esp)
  8024d3:	00 
  8024d4:	89 54 24 04          	mov    %edx,0x4(%esp)
  8024d8:	c7 04 24 00 00 00 00 	movl   $0x0,(%esp)
  8024df:	e8 d8 f1 ff ff       	call   8016bc <sys_page_map>
  8024e4:	89 c3                	mov    %eax,%ebx
  8024e6:	85 c0                	test   %eax,%eax
  8024e8:	78 04                	js     8024ee <dup+0xec>
		goto err;
  8024ea:	89 fb                	mov    %edi,%ebx
  8024ec:	eb 23                	jmp    802511 <dup+0x10f>

	return newfdnum;

err:
	sys_page_unmap(0, newfd);
  8024ee:	89 74 24 04          	mov    %esi,0x4(%esp)
  8024f2:	c7 04 24 00 00 00 00 	movl   $0x0,(%esp)
  8024f9:	e8 60 f1 ff ff       	call   80165e <sys_page_unmap>
	sys_page_unmap(0, nva);
  8024fe:	8b 45 e0             	mov    -0x20(%ebp),%eax
  802501:	89 44 24 04          	mov    %eax,0x4(%esp)
  802505:	c7 04 24 00 00 00 00 	movl   $0x0,(%esp)
  80250c:	e8 4d f1 ff ff       	call   80165e <sys_page_unmap>
	return r;
}
  802511:	89 d8                	mov    %ebx,%eax
  802513:	8b 5d f4             	mov    -0xc(%ebp),%ebx
  802516:	8b 75 f8             	mov    -0x8(%ebp),%esi
  802519:	8b 7d fc             	mov    -0x4(%ebp),%edi
  80251c:	89 ec                	mov    %ebp,%esp
  80251e:	5d                   	pop    %ebp
  80251f:	c3                   	ret    

00802520 <close_all>:
		return fd_close(fd, 1);
}

void
close_all(void)
{
  802520:	55                   	push   %ebp
  802521:	89 e5                	mov    %esp,%ebp
  802523:	53                   	push   %ebx
  802524:	83 ec 04             	sub    $0x4,%esp
  802527:	bb 00 00 00 00       	mov    $0x0,%ebx
	int i;
	for (i = 0; i < MAXFD; i++)
		close(i);
  80252c:	89 1c 24             	mov    %ebx,(%esp)
  80252f:	e8 51 fe ff ff       	call   802385 <close>

void
close_all(void)
{
	int i;
	for (i = 0; i < MAXFD; i++)
  802534:	83 c3 01             	add    $0x1,%ebx
  802537:	83 fb 20             	cmp    $0x20,%ebx
  80253a:	75 f0                	jne    80252c <close_all+0xc>
		close(i);
}
  80253c:	83 c4 04             	add    $0x4,%esp
  80253f:	5b                   	pop    %ebx
  802540:	5d                   	pop    %ebp
  802541:	c3                   	ret    
	...

00802544 <fsipc>:
// type: request code, passed as the simple integer IPC value.
// dstva: virtual address at which to receive reply page, 0 if none.
// Returns result from the file server.
static int
fsipc(unsigned type, void *dstva)
{
  802544:	55                   	push   %ebp
  802545:	89 e5                	mov    %esp,%ebp
  802547:	53                   	push   %ebx
  802548:	83 ec 14             	sub    $0x14,%esp
  80254b:	89 d3                	mov    %edx,%ebx
	if (debug)
		cprintf("[%08x] fsipc %d %08x\n", env->env_id, type, *(uint32_t *)&fsipcbuf);

	ipc_send(envs[1].env_id, type, &fsipcbuf, PTE_P | PTE_W | PTE_U);
  80254d:	8b 15 c8 00 c0 ee    	mov    0xeec000c8,%edx
  802553:	c7 44 24 0c 07 00 00 	movl   $0x7,0xc(%esp)
  80255a:	00 
  80255b:	c7 44 24 08 00 50 81 	movl   $0x815000,0x8(%esp)
  802562:	00 
  802563:	89 44 24 04          	mov    %eax,0x4(%esp)
  802567:	89 14 24             	mov    %edx,(%esp)
  80256a:	e8 21 f8 ff ff       	call   801d90 <ipc_send>
	return ipc_recv(NULL, dstva, NULL);
  80256f:	c7 44 24 08 00 00 00 	movl   $0x0,0x8(%esp)
  802576:	00 
  802577:	89 5c 24 04          	mov    %ebx,0x4(%esp)
  80257b:	c7 04 24 00 00 00 00 	movl   $0x0,(%esp)
  802582:	e8 bd f8 ff ff       	call   801e44 <ipc_recv>
}
  802587:	83 c4 14             	add    $0x14,%esp
  80258a:	5b                   	pop    %ebx
  80258b:	5d                   	pop    %ebp
  80258c:	c3                   	ret    

0080258d <sync>:
}

// Synchronize disk with buffer cache
int
sync(void)
{
  80258d:	55                   	push   %ebp
  80258e:	89 e5                	mov    %esp,%ebp
  802590:	83 ec 08             	sub    $0x8,%esp
	// Ask the file server to update the disk
	// by writing any dirty blocks in the buffer cache.

	return fsipc(FSREQ_SYNC, NULL);
  802593:	ba 00 00 00 00       	mov    $0x0,%edx
  802598:	b8 08 00 00 00       	mov    $0x8,%eax
  80259d:	e8 a2 ff ff ff       	call   802544 <fsipc>
}
  8025a2:	c9                   	leave  
  8025a3:	c3                   	ret    

008025a4 <devfile_trunc>:
}

// Truncate or extend an open file to 'size' bytes
static int
devfile_trunc(struct Fd *fd, off_t newsize)
{
  8025a4:	55                   	push   %ebp
  8025a5:	89 e5                	mov    %esp,%ebp
  8025a7:	83 ec 08             	sub    $0x8,%esp
	fsipcbuf.set_size.req_fileid = fd->fd_file.id;
  8025aa:	8b 45 08             	mov    0x8(%ebp),%eax
  8025ad:	8b 40 0c             	mov    0xc(%eax),%eax
  8025b0:	a3 00 50 81 00       	mov    %eax,0x815000
	fsipcbuf.set_size.req_size = newsize;
  8025b5:	8b 45 0c             	mov    0xc(%ebp),%eax
  8025b8:	a3 04 50 81 00       	mov    %eax,0x815004
	return fsipc(FSREQ_SET_SIZE, NULL);
  8025bd:	ba 00 00 00 00       	mov    $0x0,%edx
  8025c2:	b8 02 00 00 00       	mov    $0x2,%eax
  8025c7:	e8 78 ff ff ff       	call   802544 <fsipc>
}
  8025cc:	c9                   	leave  
  8025cd:	c3                   	ret    

008025ce <devfile_flush>:
// open, unmapping it is enough to free up server-side resources.
// Other than that, we just have to make sure our changes are flushed
// to disk.
static int
devfile_flush(struct Fd *fd)
{
  8025ce:	55                   	push   %ebp
  8025cf:	89 e5                	mov    %esp,%ebp
  8025d1:	83 ec 08             	sub    $0x8,%esp
	fsipcbuf.flush.req_fileid = fd->fd_file.id;
  8025d4:	8b 45 08             	mov    0x8(%ebp),%eax
  8025d7:	8b 40 0c             	mov    0xc(%eax),%eax
  8025da:	a3 00 50 81 00       	mov    %eax,0x815000
	return fsipc(FSREQ_FLUSH, NULL);
  8025df:	ba 00 00 00 00       	mov    $0x0,%edx
  8025e4:	b8 06 00 00 00       	mov    $0x6,%eax
  8025e9:	e8 56 ff ff ff       	call   802544 <fsipc>
}
  8025ee:	c9                   	leave  
  8025ef:	c3                   	ret    

008025f0 <devfile_stat>:
	//panic("devfile_write not implemented");
}

static int
devfile_stat(struct Fd *fd, struct Stat *st)
{
  8025f0:	55                   	push   %ebp
  8025f1:	89 e5                	mov    %esp,%ebp
  8025f3:	53                   	push   %ebx
  8025f4:	83 ec 14             	sub    $0x14,%esp
  8025f7:	8b 5d 0c             	mov    0xc(%ebp),%ebx
	int r;

	fsipcbuf.stat.req_fileid = fd->fd_file.id;
  8025fa:	8b 45 08             	mov    0x8(%ebp),%eax
  8025fd:	8b 40 0c             	mov    0xc(%eax),%eax
  802600:	a3 00 50 81 00       	mov    %eax,0x815000
	if ((r = fsipc(FSREQ_STAT, NULL)) < 0)
  802605:	ba 00 00 00 00       	mov    $0x0,%edx
  80260a:	b8 05 00 00 00       	mov    $0x5,%eax
  80260f:	e8 30 ff ff ff       	call   802544 <fsipc>
  802614:	85 c0                	test   %eax,%eax
  802616:	78 2b                	js     802643 <devfile_stat+0x53>
		return r;
	strcpy(st->st_name, fsipcbuf.statRet.ret_name);
  802618:	c7 44 24 04 00 50 81 	movl   $0x815000,0x4(%esp)
  80261f:	00 
  802620:	89 1c 24             	mov    %ebx,(%esp)
  802623:	e8 b9 e9 ff ff       	call   800fe1 <strcpy>
	st->st_size = fsipcbuf.statRet.ret_size;
  802628:	a1 80 50 81 00       	mov    0x815080,%eax
  80262d:	89 83 80 00 00 00    	mov    %eax,0x80(%ebx)
	st->st_isdir = fsipcbuf.statRet.ret_isdir;
  802633:	a1 84 50 81 00       	mov    0x815084,%eax
  802638:	89 83 84 00 00 00    	mov    %eax,0x84(%ebx)
  80263e:	b8 00 00 00 00       	mov    $0x0,%eax
	return 0;
}
  802643:	83 c4 14             	add    $0x14,%esp
  802646:	5b                   	pop    %ebx
  802647:	5d                   	pop    %ebp
  802648:	c3                   	ret    

00802649 <devfile_write>:
// Returns:
//	 The number of bytes successfully written.
//	 < 0 on error.
static ssize_t
devfile_write(struct Fd *fd, const void *buf, size_t n)
{
  802649:	55                   	push   %ebp
  80264a:	89 e5                	mov    %esp,%ebp
  80264c:	83 ec 18             	sub    $0x18,%esp
  80264f:	8b 55 10             	mov    0x10(%ebp),%edx
	// remember that write is always allowed to write *fewer*
	// bytes than requested.
	// LAB 5: Your code here
	ssize_t writesize;
	size_t bufsize;
	fsipcbuf.write.req_fileid=fd->fd_file.id;
  802652:	8b 45 08             	mov    0x8(%ebp),%eax
  802655:	8b 40 0c             	mov    0xc(%eax),%eax
  802658:	a3 00 50 81 00       	mov    %eax,0x815000
	bufsize=sizeof(fsipcbuf.write.req_buf);
	if(n<bufsize)
  80265d:	89 d0                	mov    %edx,%eax
  80265f:	81 fa f7 0f 00 00    	cmp    $0xff7,%edx
  802665:	76 05                	jbe    80266c <devfile_write+0x23>
  802667:	b8 f8 0f 00 00       	mov    $0xff8,%eax
		bufsize=n;	
	fsipcbuf.write.req_n=n;
  80266c:	89 15 04 50 81 00    	mov    %edx,0x815004
	memmove((void*)fsipcbuf.write.req_buf,buf,bufsize);
  802672:	89 44 24 08          	mov    %eax,0x8(%esp)
  802676:	8b 45 0c             	mov    0xc(%ebp),%eax
  802679:	89 44 24 04          	mov    %eax,0x4(%esp)
  80267d:	c7 04 24 08 50 81 00 	movl   $0x815008,(%esp)
  802684:	e8 5f eb ff ff       	call   8011e8 <memmove>
	writesize=(ssize_t)fsipc(FSREQ_WRITE,NULL);
  802689:	ba 00 00 00 00       	mov    $0x0,%edx
  80268e:	b8 04 00 00 00       	mov    $0x4,%eax
  802693:	e8 ac fe ff ff       	call   802544 <fsipc>
	return writesize;
	//panic("devfile_write not implemented");
}
  802698:	c9                   	leave  
  802699:	c3                   	ret    

0080269a <devfile_read>:
// Returns:
// 	The number of bytes successfully read.
// 	< 0 on error.
static ssize_t
devfile_read(struct Fd *fd, void *buf, size_t n)
{
  80269a:	55                   	push   %ebp
  80269b:	89 e5                	mov    %esp,%ebp
  80269d:	53                   	push   %ebx
  80269e:	83 ec 14             	sub    $0x14,%esp
	// system server.
	// LAB 5: Your code here
	ssize_t readsize;
	if(debug)
		cprintf("devfile_read:fileid=%x readsize=%x\n",fd->fd_file.id,n);
	fsipcbuf.read.req_fileid=fd->fd_file.id;
  8026a1:	8b 45 08             	mov    0x8(%ebp),%eax
  8026a4:	8b 40 0c             	mov    0xc(%eax),%eax
  8026a7:	a3 00 50 81 00       	mov    %eax,0x815000
	fsipcbuf.read.req_n=n;
  8026ac:	8b 45 10             	mov    0x10(%ebp),%eax
  8026af:	a3 04 50 81 00       	mov    %eax,0x815004
	readsize=(ssize_t)fsipc(FSREQ_READ,&fsipcbuf);
  8026b4:	ba 00 50 81 00       	mov    $0x815000,%edx
  8026b9:	b8 03 00 00 00       	mov    $0x3,%eax
  8026be:	e8 81 fe ff ff       	call   802544 <fsipc>
  8026c3:	89 c3                	mov    %eax,%ebx
	//cprintf("readsize=%d\n",readsize);
	if(debug)
		cprintf("devfile_read:buf1=%s\nbuf2=%s\n",(char*)&fsipcbuf,fsipcbuf.readRet.ret_buf);
	if(readsize>0)
  8026c5:	85 c0                	test   %eax,%eax
  8026c7:	7e 17                	jle    8026e0 <devfile_read+0x46>
		memmove(buf,(void*)&fsipcbuf,(size_t)readsize);
  8026c9:	89 44 24 08          	mov    %eax,0x8(%esp)
  8026cd:	c7 44 24 04 00 50 81 	movl   $0x815000,0x4(%esp)
  8026d4:	00 
  8026d5:	8b 45 0c             	mov    0xc(%ebp),%eax
  8026d8:	89 04 24             	mov    %eax,(%esp)
  8026db:	e8 08 eb ff ff       	call   8011e8 <memmove>
	//cprintf("readsize=%d",readsize);
	return readsize;
	//panic("devfile_read not implemented");
}
  8026e0:	89 d8                	mov    %ebx,%eax
  8026e2:	83 c4 14             	add    $0x14,%esp
  8026e5:	5b                   	pop    %ebx
  8026e6:	5d                   	pop    %ebp
  8026e7:	c3                   	ret    

008026e8 <remove>:
}

// Delete a file
int
remove(const char *path)
{
  8026e8:	55                   	push   %ebp
  8026e9:	89 e5                	mov    %esp,%ebp
  8026eb:	53                   	push   %ebx
  8026ec:	83 ec 14             	sub    $0x14,%esp
  8026ef:	8b 5d 08             	mov    0x8(%ebp),%ebx
	if (strlen(path) >= MAXPATHLEN)
  8026f2:	89 1c 24             	mov    %ebx,(%esp)
  8026f5:	e8 96 e8 ff ff       	call   800f90 <strlen>
  8026fa:	ba f4 ff ff ff       	mov    $0xfffffff4,%edx
  8026ff:	3d ff 03 00 00       	cmp    $0x3ff,%eax
  802704:	7f 21                	jg     802727 <remove+0x3f>
		return -E_BAD_PATH;
	strcpy(fsipcbuf.remove.req_path, path);
  802706:	89 5c 24 04          	mov    %ebx,0x4(%esp)
  80270a:	c7 04 24 00 50 81 00 	movl   $0x815000,(%esp)
  802711:	e8 cb e8 ff ff       	call   800fe1 <strcpy>
	return fsipc(FSREQ_REMOVE, NULL);
  802716:	ba 00 00 00 00       	mov    $0x0,%edx
  80271b:	b8 07 00 00 00       	mov    $0x7,%eax
  802720:	e8 1f fe ff ff       	call   802544 <fsipc>
  802725:	89 c2                	mov    %eax,%edx
}
  802727:	89 d0                	mov    %edx,%eax
  802729:	83 c4 14             	add    $0x14,%esp
  80272c:	5b                   	pop    %ebx
  80272d:	5d                   	pop    %ebp
  80272e:	c3                   	ret    

0080272f <open>:
// 	The file descriptor index on success
// 	-E_BAD_PATH if the path is too long (>= MAXPATHLEN)
// 	< 0 for other errors.
int
open(const char *path, int mode)
{
  80272f:	55                   	push   %ebp
  802730:	89 e5                	mov    %esp,%ebp
  802732:	56                   	push   %esi
  802733:	53                   	push   %ebx
  802734:	83 ec 30             	sub    $0x30,%esp

	// LAB 5: Your code here.
	struct Fd *fd;
	int r;
	void *page;
	if((r=fd_alloc(&fd))<0){
  802737:	8d 45 f4             	lea    -0xc(%ebp),%eax
  80273a:	89 04 24             	mov    %eax,(%esp)
  80273d:	e8 19 f8 ff ff       	call   801f5b <fd_alloc>
  802742:	89 c3                	mov    %eax,%ebx
  802744:	85 c0                	test   %eax,%eax
  802746:	79 18                	jns    802760 <open+0x31>
		fd_close(fd,0);
  802748:	c7 44 24 04 00 00 00 	movl   $0x0,0x4(%esp)
  80274f:	00 
  802750:	8b 45 f4             	mov    -0xc(%ebp),%eax
  802753:	89 04 24             	mov    %eax,(%esp)
  802756:	e8 a3 fb ff ff       	call   8022fe <fd_close>
  80275b:	e9 9f 00 00 00       	jmp    8027ff <open+0xd0>
		return r;
	}
	//cprintf("open:fd=%x\n",fd);
	strcpy(fsipcbuf.open.req_path,path);
  802760:	8b 45 08             	mov    0x8(%ebp),%eax
  802763:	89 44 24 04          	mov    %eax,0x4(%esp)
  802767:	c7 04 24 00 50 81 00 	movl   $0x815000,(%esp)
  80276e:	e8 6e e8 ff ff       	call   800fe1 <strcpy>
	fsipcbuf.open.req_omode=mode;
  802773:	8b 45 0c             	mov    0xc(%ebp),%eax
  802776:	a3 00 54 81 00       	mov    %eax,0x815400
	page=(void*)fd2data(fd);
  80277b:	8b 45 f4             	mov    -0xc(%ebp),%eax
  80277e:	89 04 24             	mov    %eax,(%esp)
  802781:	e8 ba f7 ff ff       	call   801f40 <fd2data>
  802786:	89 c6                	mov    %eax,%esi
	if((r=fsipc(FSREQ_OPEN,(void*)fd))<0)
  802788:	8b 55 f4             	mov    -0xc(%ebp),%edx
  80278b:	b8 01 00 00 00       	mov    $0x1,%eax
  802790:	e8 af fd ff ff       	call   802544 <fsipc>
  802795:	89 c3                	mov    %eax,%ebx
  802797:	85 c0                	test   %eax,%eax
  802799:	79 15                	jns    8027b0 <open+0x81>
	{
		fd_close(fd,1);
  80279b:	c7 44 24 04 01 00 00 	movl   $0x1,0x4(%esp)
  8027a2:	00 
  8027a3:	8b 45 f4             	mov    -0xc(%ebp),%eax
  8027a6:	89 04 24             	mov    %eax,(%esp)
  8027a9:	e8 50 fb ff ff       	call   8022fe <fd_close>
  8027ae:	eb 4f                	jmp    8027ff <open+0xd0>
		return r;	
	}
	//cprintf("open:page=%x\n",page);
	if((r=sys_page_map(0,(void*)fd,0,(void*)page,PTE_P | PTE_W | PTE_U))<0)
  8027b0:	c7 44 24 10 07 00 00 	movl   $0x7,0x10(%esp)
  8027b7:	00 
  8027b8:	89 74 24 0c          	mov    %esi,0xc(%esp)
  8027bc:	c7 44 24 08 00 00 00 	movl   $0x0,0x8(%esp)
  8027c3:	00 
  8027c4:	8b 45 f4             	mov    -0xc(%ebp),%eax
  8027c7:	89 44 24 04          	mov    %eax,0x4(%esp)
  8027cb:	c7 04 24 00 00 00 00 	movl   $0x0,(%esp)
  8027d2:	e8 e5 ee ff ff       	call   8016bc <sys_page_map>
  8027d7:	89 c3                	mov    %eax,%ebx
  8027d9:	85 c0                	test   %eax,%eax
  8027db:	79 15                	jns    8027f2 <open+0xc3>
	{
		fd_close(fd,1);
  8027dd:	c7 44 24 04 01 00 00 	movl   $0x1,0x4(%esp)
  8027e4:	00 
  8027e5:	8b 45 f4             	mov    -0xc(%ebp),%eax
  8027e8:	89 04 24             	mov    %eax,(%esp)
  8027eb:	e8 0e fb ff ff       	call   8022fe <fd_close>
  8027f0:	eb 0d                	jmp    8027ff <open+0xd0>
		return r;
	}
	//cprintf("open:fileid=%x\n",fd->fd_file.id);
	return fd2num(fd);
  8027f2:	8b 45 f4             	mov    -0xc(%ebp),%eax
  8027f5:	89 04 24             	mov    %eax,(%esp)
  8027f8:	e8 33 f7 ff ff       	call   801f30 <fd2num>
  8027fd:	89 c3                	mov    %eax,%ebx
	//panic("open not implemented");
}
  8027ff:	89 d8                	mov    %ebx,%eax
  802801:	83 c4 30             	add    $0x30,%esp
  802804:	5b                   	pop    %ebx
  802805:	5e                   	pop    %esi
  802806:	5d                   	pop    %ebp
  802807:	c3                   	ret    
	...

00802810 <devsock_stat>:
	return nsipc_send(fd->fd_sock.sockid, buf, n, 0);
}

static int
devsock_stat(struct Fd *fd, struct Stat *stat)
{
  802810:	55                   	push   %ebp
  802811:	89 e5                	mov    %esp,%ebp
  802813:	83 ec 08             	sub    $0x8,%esp
	strcpy(stat->st_name, "<sock>");
  802816:	c7 44 24 04 20 28 81 	movl   $0x812820,0x4(%esp)
  80281d:	00 
  80281e:	8b 45 0c             	mov    0xc(%ebp),%eax
  802821:	89 04 24             	mov    %eax,(%esp)
  802824:	e8 b8 e7 ff ff       	call   800fe1 <strcpy>
	return 0;
}
  802829:	b8 00 00 00 00       	mov    $0x0,%eax
  80282e:	c9                   	leave  
  80282f:	c3                   	ret    

00802830 <devsock_close>:
	return nsipc_shutdown(r, how);
}

static int
devsock_close(struct Fd *fd)
{
  802830:	55                   	push   %ebp
  802831:	89 e5                	mov    %esp,%ebp
  802833:	83 ec 08             	sub    $0x8,%esp
	return nsipc_close(fd->fd_sock.sockid);
  802836:	8b 45 08             	mov    0x8(%ebp),%eax
  802839:	8b 40 0c             	mov    0xc(%eax),%eax
  80283c:	89 04 24             	mov    %eax,(%esp)
  80283f:	e8 9e 02 00 00       	call   802ae2 <nsipc_close>
}
  802844:	c9                   	leave  
  802845:	c3                   	ret    

00802846 <devsock_write>:
	return nsipc_recv(fd->fd_sock.sockid, buf, n, 0);
}

static ssize_t
devsock_write(struct Fd *fd, const void *buf, size_t n)
{
  802846:	55                   	push   %ebp
  802847:	89 e5                	mov    %esp,%ebp
  802849:	83 ec 18             	sub    $0x18,%esp
	return nsipc_send(fd->fd_sock.sockid, buf, n, 0);
  80284c:	c7 44 24 0c 00 00 00 	movl   $0x0,0xc(%esp)
  802853:	00 
  802854:	8b 45 10             	mov    0x10(%ebp),%eax
  802857:	89 44 24 08          	mov    %eax,0x8(%esp)
  80285b:	8b 45 0c             	mov    0xc(%ebp),%eax
  80285e:	89 44 24 04          	mov    %eax,0x4(%esp)
  802862:	8b 45 08             	mov    0x8(%ebp),%eax
  802865:	8b 40 0c             	mov    0xc(%eax),%eax
  802868:	89 04 24             	mov    %eax,(%esp)
  80286b:	e8 ae 02 00 00       	call   802b1e <nsipc_send>
}
  802870:	c9                   	leave  
  802871:	c3                   	ret    

00802872 <devsock_read>:
	return nsipc_listen(r, backlog);
}

static ssize_t
devsock_read(struct Fd *fd, void *buf, size_t n)
{
  802872:	55                   	push   %ebp
  802873:	89 e5                	mov    %esp,%ebp
  802875:	83 ec 18             	sub    $0x18,%esp
	return nsipc_recv(fd->fd_sock.sockid, buf, n, 0);
  802878:	c7 44 24 0c 00 00 00 	movl   $0x0,0xc(%esp)
  80287f:	00 
  802880:	8b 45 10             	mov    0x10(%ebp),%eax
  802883:	89 44 24 08          	mov    %eax,0x8(%esp)
  802887:	8b 45 0c             	mov    0xc(%ebp),%eax
  80288a:	89 44 24 04          	mov    %eax,0x4(%esp)
  80288e:	8b 45 08             	mov    0x8(%ebp),%eax
  802891:	8b 40 0c             	mov    0xc(%eax),%eax
  802894:	89 04 24             	mov    %eax,(%esp)
  802897:	e8 f5 02 00 00       	call   802b91 <nsipc_recv>
}
  80289c:	c9                   	leave  
  80289d:	c3                   	ret    

0080289e <alloc_sockfd>:
	return sfd->fd_sock.sockid;
}

static int
alloc_sockfd(int sockid)
{
  80289e:	55                   	push   %ebp
  80289f:	89 e5                	mov    %esp,%ebp
  8028a1:	56                   	push   %esi
  8028a2:	53                   	push   %ebx
  8028a3:	83 ec 20             	sub    $0x20,%esp
  8028a6:	89 c6                	mov    %eax,%esi
	struct Fd *sfd;
	int r;

	if ((r = fd_alloc(&sfd)) < 0
  8028a8:	8d 45 f4             	lea    -0xc(%ebp),%eax
  8028ab:	89 04 24             	mov    %eax,(%esp)
  8028ae:	e8 a8 f6 ff ff       	call   801f5b <fd_alloc>
  8028b3:	89 c3                	mov    %eax,%ebx
  8028b5:	85 c0                	test   %eax,%eax
  8028b7:	78 21                	js     8028da <alloc_sockfd+0x3c>
  8028b9:	c7 44 24 08 07 00 00 	movl   $0x7,0x8(%esp)
  8028c0:	00 
  8028c1:	8b 45 f4             	mov    -0xc(%ebp),%eax
  8028c4:	89 44 24 04          	mov    %eax,0x4(%esp)
  8028c8:	c7 04 24 00 00 00 00 	movl   $0x0,(%esp)
  8028cf:	e8 46 ee ff ff       	call   80171a <sys_page_alloc>
  8028d4:	89 c3                	mov    %eax,%ebx
  8028d6:	85 c0                	test   %eax,%eax
  8028d8:	79 0a                	jns    8028e4 <alloc_sockfd+0x46>
	    || (r = sys_page_alloc(0, sfd, PTE_P|PTE_W|PTE_U)) < 0) {
		nsipc_close(sockid);
  8028da:	89 34 24             	mov    %esi,(%esp)
  8028dd:	e8 00 02 00 00       	call   802ae2 <nsipc_close>
  8028e2:	eb 28                	jmp    80290c <alloc_sockfd+0x6e>
		return r;
	}

	sfd->fd_dev_id = devsock.dev_id;
  8028e4:	8b 15 20 80 81 00    	mov    0x818020,%edx
  8028ea:	8b 45 f4             	mov    -0xc(%ebp),%eax
  8028ed:	89 10                	mov    %edx,(%eax)
	sfd->fd_omode = O_RDWR;
  8028ef:	8b 45 f4             	mov    -0xc(%ebp),%eax
  8028f2:	c7 40 08 02 00 00 00 	movl   $0x2,0x8(%eax)
	sfd->fd_sock.sockid = sockid;
  8028f9:	8b 45 f4             	mov    -0xc(%ebp),%eax
  8028fc:	89 70 0c             	mov    %esi,0xc(%eax)
	return fd2num(sfd);
  8028ff:	8b 45 f4             	mov    -0xc(%ebp),%eax
  802902:	89 04 24             	mov    %eax,(%esp)
  802905:	e8 26 f6 ff ff       	call   801f30 <fd2num>
  80290a:	89 c3                	mov    %eax,%ebx
}
  80290c:	89 d8                	mov    %ebx,%eax
  80290e:	83 c4 20             	add    $0x20,%esp
  802911:	5b                   	pop    %ebx
  802912:	5e                   	pop    %esi
  802913:	5d                   	pop    %ebp
  802914:	c3                   	ret    

00802915 <socket>:
	return 0;
}

int
socket(int domain, int type, int protocol)
{
  802915:	55                   	push   %ebp
  802916:	89 e5                	mov    %esp,%ebp
  802918:	83 ec 18             	sub    $0x18,%esp
	int r;
	if ((r = nsipc_socket(domain, type, protocol)) < 0)
  80291b:	8b 45 10             	mov    0x10(%ebp),%eax
  80291e:	89 44 24 08          	mov    %eax,0x8(%esp)
  802922:	8b 45 0c             	mov    0xc(%ebp),%eax
  802925:	89 44 24 04          	mov    %eax,0x4(%esp)
  802929:	8b 45 08             	mov    0x8(%ebp),%eax
  80292c:	89 04 24             	mov    %eax,(%esp)
  80292f:	e8 62 01 00 00       	call   802a96 <nsipc_socket>
  802934:	85 c0                	test   %eax,%eax
  802936:	78 05                	js     80293d <socket+0x28>
		return r;
	return alloc_sockfd(r);
  802938:	e8 61 ff ff ff       	call   80289e <alloc_sockfd>
}
  80293d:	c9                   	leave  
  80293e:	66 90                	xchg   %ax,%ax
  802940:	c3                   	ret    

00802941 <fd2sockid>:
	.dev_stat =	devsock_stat,
};

static int
fd2sockid(int fd)
{
  802941:	55                   	push   %ebp
  802942:	89 e5                	mov    %esp,%ebp
  802944:	83 ec 18             	sub    $0x18,%esp
	struct Fd *sfd;
	int r;

	if ((r = fd_lookup(fd, &sfd)) < 0)
  802947:	8d 55 fc             	lea    -0x4(%ebp),%edx
  80294a:	89 54 24 04          	mov    %edx,0x4(%esp)
  80294e:	89 04 24             	mov    %eax,(%esp)
  802951:	e8 58 f6 ff ff       	call   801fae <fd_lookup>
  802956:	89 c2                	mov    %eax,%edx
  802958:	85 c0                	test   %eax,%eax
  80295a:	78 15                	js     802971 <fd2sockid+0x30>
		return r;
	if (sfd->fd_dev_id != devsock.dev_id)
  80295c:	8b 4d fc             	mov    -0x4(%ebp),%ecx
  80295f:	8b 01                	mov    (%ecx),%eax
  802961:	ba f1 ff ff ff       	mov    $0xfffffff1,%edx
  802966:	3b 05 20 80 81 00    	cmp    0x818020,%eax
  80296c:	75 03                	jne    802971 <fd2sockid+0x30>
		return -E_NOT_SUPP;
	return sfd->fd_sock.sockid;
  80296e:	8b 51 0c             	mov    0xc(%ecx),%edx
}
  802971:	89 d0                	mov    %edx,%eax
  802973:	c9                   	leave  
  802974:	c3                   	ret    

00802975 <listen>:
	return nsipc_connect(r, name, namelen);
}

int
listen(int s, int backlog)
{
  802975:	55                   	push   %ebp
  802976:	89 e5                	mov    %esp,%ebp
  802978:	83 ec 08             	sub    $0x8,%esp
	int r;
	if ((r = fd2sockid(s)) < 0)
  80297b:	8b 45 08             	mov    0x8(%ebp),%eax
  80297e:	e8 be ff ff ff       	call   802941 <fd2sockid>
  802983:	85 c0                	test   %eax,%eax
  802985:	78 0f                	js     802996 <listen+0x21>
		return r;
	return nsipc_listen(r, backlog);
  802987:	8b 55 0c             	mov    0xc(%ebp),%edx
  80298a:	89 54 24 04          	mov    %edx,0x4(%esp)
  80298e:	89 04 24             	mov    %eax,(%esp)
  802991:	e8 2a 01 00 00       	call   802ac0 <nsipc_listen>
}
  802996:	c9                   	leave  
  802997:	c3                   	ret    

00802998 <connect>:
	return nsipc_close(fd->fd_sock.sockid);
}

int
connect(int s, const struct sockaddr *name, socklen_t namelen)
{
  802998:	55                   	push   %ebp
  802999:	89 e5                	mov    %esp,%ebp
  80299b:	83 ec 18             	sub    $0x18,%esp
	int r;
	if ((r = fd2sockid(s)) < 0)
  80299e:	8b 45 08             	mov    0x8(%ebp),%eax
  8029a1:	e8 9b ff ff ff       	call   802941 <fd2sockid>
  8029a6:	85 c0                	test   %eax,%eax
  8029a8:	78 16                	js     8029c0 <connect+0x28>
		return r;
	return nsipc_connect(r, name, namelen);
  8029aa:	8b 55 10             	mov    0x10(%ebp),%edx
  8029ad:	89 54 24 08          	mov    %edx,0x8(%esp)
  8029b1:	8b 55 0c             	mov    0xc(%ebp),%edx
  8029b4:	89 54 24 04          	mov    %edx,0x4(%esp)
  8029b8:	89 04 24             	mov    %eax,(%esp)
  8029bb:	e8 51 02 00 00       	call   802c11 <nsipc_connect>
}
  8029c0:	c9                   	leave  
  8029c1:	c3                   	ret    

008029c2 <shutdown>:
	return nsipc_bind(r, name, namelen);
}

int
shutdown(int s, int how)
{
  8029c2:	55                   	push   %ebp
  8029c3:	89 e5                	mov    %esp,%ebp
  8029c5:	83 ec 08             	sub    $0x8,%esp
	int r;
	if ((r = fd2sockid(s)) < 0)
  8029c8:	8b 45 08             	mov    0x8(%ebp),%eax
  8029cb:	e8 71 ff ff ff       	call   802941 <fd2sockid>
  8029d0:	85 c0                	test   %eax,%eax
  8029d2:	78 0f                	js     8029e3 <shutdown+0x21>
		return r;
	return nsipc_shutdown(r, how);
  8029d4:	8b 55 0c             	mov    0xc(%ebp),%edx
  8029d7:	89 54 24 04          	mov    %edx,0x4(%esp)
  8029db:	89 04 24             	mov    %eax,(%esp)
  8029de:	e8 19 01 00 00       	call   802afc <nsipc_shutdown>
}
  8029e3:	c9                   	leave  
  8029e4:	c3                   	ret    

008029e5 <bind>:
	return alloc_sockfd(r);
}

int
bind(int s, struct sockaddr *name, socklen_t namelen)
{
  8029e5:	55                   	push   %ebp
  8029e6:	89 e5                	mov    %esp,%ebp
  8029e8:	83 ec 18             	sub    $0x18,%esp
	int r;
	if ((r = fd2sockid(s)) < 0)
  8029eb:	8b 45 08             	mov    0x8(%ebp),%eax
  8029ee:	e8 4e ff ff ff       	call   802941 <fd2sockid>
  8029f3:	85 c0                	test   %eax,%eax
  8029f5:	78 16                	js     802a0d <bind+0x28>
		return r;
	return nsipc_bind(r, name, namelen);
  8029f7:	8b 55 10             	mov    0x10(%ebp),%edx
  8029fa:	89 54 24 08          	mov    %edx,0x8(%esp)
  8029fe:	8b 55 0c             	mov    0xc(%ebp),%edx
  802a01:	89 54 24 04          	mov    %edx,0x4(%esp)
  802a05:	89 04 24             	mov    %eax,(%esp)
  802a08:	e8 43 02 00 00       	call   802c50 <nsipc_bind>
}
  802a0d:	c9                   	leave  
  802a0e:	c3                   	ret    

00802a0f <accept>:
	return fd2num(sfd);
}

int
accept(int s, struct sockaddr *addr, socklen_t *addrlen)
{
  802a0f:	55                   	push   %ebp
  802a10:	89 e5                	mov    %esp,%ebp
  802a12:	83 ec 18             	sub    $0x18,%esp
	int r;
	if ((r = fd2sockid(s)) < 0)
  802a15:	8b 45 08             	mov    0x8(%ebp),%eax
  802a18:	e8 24 ff ff ff       	call   802941 <fd2sockid>
  802a1d:	85 c0                	test   %eax,%eax
  802a1f:	78 1f                	js     802a40 <accept+0x31>
		return r;
	if ((r = nsipc_accept(r, addr, addrlen)) < 0)
  802a21:	8b 55 10             	mov    0x10(%ebp),%edx
  802a24:	89 54 24 08          	mov    %edx,0x8(%esp)
  802a28:	8b 55 0c             	mov    0xc(%ebp),%edx
  802a2b:	89 54 24 04          	mov    %edx,0x4(%esp)
  802a2f:	89 04 24             	mov    %eax,(%esp)
  802a32:	e8 58 02 00 00       	call   802c8f <nsipc_accept>
  802a37:	85 c0                	test   %eax,%eax
  802a39:	78 05                	js     802a40 <accept+0x31>
		return r;
	return alloc_sockfd(r);
  802a3b:	e8 5e fe ff ff       	call   80289e <alloc_sockfd>
}
  802a40:	c9                   	leave  
  802a41:	c3                   	ret    
	...

00802a50 <nsipc>:
// may be written back to nsipcbuf.
// type: request code, passed as the simple integer IPC value.
// Returns 0 if successful, < 0 on failure.
static int
nsipc(unsigned type)
{
  802a50:	55                   	push   %ebp
  802a51:	89 e5                	mov    %esp,%ebp
  802a53:	83 ec 18             	sub    $0x18,%esp
	if (debug)
		cprintf("[%08x] nsipc %d\n", env->env_id, type);

	ipc_send(envs[2].env_id, type, &nsipcbuf, PTE_P|PTE_W|PTE_U);
  802a56:	8b 15 44 01 c0 ee    	mov    0xeec00144,%edx
  802a5c:	c7 44 24 0c 07 00 00 	movl   $0x7,0xc(%esp)
  802a63:	00 
  802a64:	c7 44 24 08 00 70 81 	movl   $0x817000,0x8(%esp)
  802a6b:	00 
  802a6c:	89 44 24 04          	mov    %eax,0x4(%esp)
  802a70:	89 14 24             	mov    %edx,(%esp)
  802a73:	e8 18 f3 ff ff       	call   801d90 <ipc_send>
	return ipc_recv(NULL, NULL, NULL);
  802a78:	c7 44 24 08 00 00 00 	movl   $0x0,0x8(%esp)
  802a7f:	00 
  802a80:	c7 44 24 04 00 00 00 	movl   $0x0,0x4(%esp)
  802a87:	00 
  802a88:	c7 04 24 00 00 00 00 	movl   $0x0,(%esp)
  802a8f:	e8 b0 f3 ff ff       	call   801e44 <ipc_recv>
}
  802a94:	c9                   	leave  
  802a95:	c3                   	ret    

00802a96 <nsipc_socket>:
	return nsipc(NSREQ_SEND);
}

int
nsipc_socket(int domain, int type, int protocol)
{
  802a96:	55                   	push   %ebp
  802a97:	89 e5                	mov    %esp,%ebp
  802a99:	83 ec 08             	sub    $0x8,%esp
	nsipcbuf.socket.req_domain = domain;
  802a9c:	8b 45 08             	mov    0x8(%ebp),%eax
  802a9f:	a3 00 70 81 00       	mov    %eax,0x817000
	nsipcbuf.socket.req_type = type;
  802aa4:	8b 45 0c             	mov    0xc(%ebp),%eax
  802aa7:	a3 04 70 81 00       	mov    %eax,0x817004
	nsipcbuf.socket.req_protocol = protocol;
  802aac:	8b 45 10             	mov    0x10(%ebp),%eax
  802aaf:	a3 08 70 81 00       	mov    %eax,0x817008
	return nsipc(NSREQ_SOCKET);
  802ab4:	b8 09 00 00 00       	mov    $0x9,%eax
  802ab9:	e8 92 ff ff ff       	call   802a50 <nsipc>
}
  802abe:	c9                   	leave  
  802abf:	c3                   	ret    

00802ac0 <nsipc_listen>:
	return nsipc(NSREQ_CONNECT);
}

int
nsipc_listen(int s, int backlog)
{
  802ac0:	55                   	push   %ebp
  802ac1:	89 e5                	mov    %esp,%ebp
  802ac3:	83 ec 08             	sub    $0x8,%esp
	nsipcbuf.listen.req_s = s;
  802ac6:	8b 45 08             	mov    0x8(%ebp),%eax
  802ac9:	a3 00 70 81 00       	mov    %eax,0x817000
	nsipcbuf.listen.req_backlog = backlog;
  802ace:	8b 45 0c             	mov    0xc(%ebp),%eax
  802ad1:	a3 04 70 81 00       	mov    %eax,0x817004
	return nsipc(NSREQ_LISTEN);
  802ad6:	b8 06 00 00 00       	mov    $0x6,%eax
  802adb:	e8 70 ff ff ff       	call   802a50 <nsipc>
}
  802ae0:	c9                   	leave  
  802ae1:	c3                   	ret    

00802ae2 <nsipc_close>:
	return nsipc(NSREQ_SHUTDOWN);
}

int
nsipc_close(int s)
{
  802ae2:	55                   	push   %ebp
  802ae3:	89 e5                	mov    %esp,%ebp
  802ae5:	83 ec 08             	sub    $0x8,%esp
	nsipcbuf.close.req_s = s;
  802ae8:	8b 45 08             	mov    0x8(%ebp),%eax
  802aeb:	a3 00 70 81 00       	mov    %eax,0x817000
	return nsipc(NSREQ_CLOSE);
  802af0:	b8 04 00 00 00       	mov    $0x4,%eax
  802af5:	e8 56 ff ff ff       	call   802a50 <nsipc>
}
  802afa:	c9                   	leave  
  802afb:	c3                   	ret    

00802afc <nsipc_shutdown>:
	return nsipc(NSREQ_BIND);
}

int
nsipc_shutdown(int s, int how)
{
  802afc:	55                   	push   %ebp
  802afd:	89 e5                	mov    %esp,%ebp
  802aff:	83 ec 08             	sub    $0x8,%esp
	nsipcbuf.shutdown.req_s = s;
  802b02:	8b 45 08             	mov    0x8(%ebp),%eax
  802b05:	a3 00 70 81 00       	mov    %eax,0x817000
	nsipcbuf.shutdown.req_how = how;
  802b0a:	8b 45 0c             	mov    0xc(%ebp),%eax
  802b0d:	a3 04 70 81 00       	mov    %eax,0x817004
	return nsipc(NSREQ_SHUTDOWN);
  802b12:	b8 03 00 00 00       	mov    $0x3,%eax
  802b17:	e8 34 ff ff ff       	call   802a50 <nsipc>
}
  802b1c:	c9                   	leave  
  802b1d:	c3                   	ret    

00802b1e <nsipc_send>:
	return r;
}

int
nsipc_send(int s, const void *buf, int size, unsigned int flags)
{
  802b1e:	55                   	push   %ebp
  802b1f:	89 e5                	mov    %esp,%ebp
  802b21:	53                   	push   %ebx
  802b22:	83 ec 14             	sub    $0x14,%esp
  802b25:	8b 5d 10             	mov    0x10(%ebp),%ebx
	nsipcbuf.send.req_s = s;
  802b28:	8b 45 08             	mov    0x8(%ebp),%eax
  802b2b:	a3 00 70 81 00       	mov    %eax,0x817000
	assert(size < 1600);
  802b30:	81 fb 3f 06 00 00    	cmp    $0x63f,%ebx
  802b36:	7e 24                	jle    802b5c <nsipc_send+0x3e>
  802b38:	c7 44 24 0c 2c 28 81 	movl   $0x81282c,0xc(%esp)
  802b3f:	00 
  802b40:	c7 44 24 08 38 28 81 	movl   $0x812838,0x8(%esp)
  802b47:	00 
  802b48:	c7 44 24 04 66 00 00 	movl   $0x66,0x4(%esp)
  802b4f:	00 
  802b50:	c7 04 24 4d 28 81 00 	movl   $0x81284d,(%esp)
  802b57:	e8 50 dd ff ff       	call   8008ac <_panic>
	memmove(&nsipcbuf.send.req_buf, buf, size);
  802b5c:	89 5c 24 08          	mov    %ebx,0x8(%esp)
  802b60:	8b 45 0c             	mov    0xc(%ebp),%eax
  802b63:	89 44 24 04          	mov    %eax,0x4(%esp)
  802b67:	c7 04 24 0c 70 81 00 	movl   $0x81700c,(%esp)
  802b6e:	e8 75 e6 ff ff       	call   8011e8 <memmove>
	nsipcbuf.send.req_size = size;
  802b73:	89 1d 04 70 81 00    	mov    %ebx,0x817004
	nsipcbuf.send.req_flags = flags;
  802b79:	8b 45 14             	mov    0x14(%ebp),%eax
  802b7c:	a3 08 70 81 00       	mov    %eax,0x817008
	return nsipc(NSREQ_SEND);
  802b81:	b8 08 00 00 00       	mov    $0x8,%eax
  802b86:	e8 c5 fe ff ff       	call   802a50 <nsipc>
}
  802b8b:	83 c4 14             	add    $0x14,%esp
  802b8e:	5b                   	pop    %ebx
  802b8f:	5d                   	pop    %ebp
  802b90:	c3                   	ret    

00802b91 <nsipc_recv>:
	return nsipc(NSREQ_LISTEN);
}

int
nsipc_recv(int s, void *mem, int len, unsigned int flags)
{
  802b91:	55                   	push   %ebp
  802b92:	89 e5                	mov    %esp,%ebp
  802b94:	56                   	push   %esi
  802b95:	53                   	push   %ebx
  802b96:	83 ec 10             	sub    $0x10,%esp
  802b99:	8b 75 10             	mov    0x10(%ebp),%esi
	int r;

	nsipcbuf.recv.req_s = s;
  802b9c:	8b 45 08             	mov    0x8(%ebp),%eax
  802b9f:	a3 00 70 81 00       	mov    %eax,0x817000
	nsipcbuf.recv.req_len = len;
  802ba4:	89 35 04 70 81 00    	mov    %esi,0x817004
	nsipcbuf.recv.req_flags = flags;
  802baa:	8b 45 14             	mov    0x14(%ebp),%eax
  802bad:	a3 08 70 81 00       	mov    %eax,0x817008

	if ((r = nsipc(NSREQ_RECV)) >= 0) {
  802bb2:	b8 07 00 00 00       	mov    $0x7,%eax
  802bb7:	e8 94 fe ff ff       	call   802a50 <nsipc>
  802bbc:	89 c3                	mov    %eax,%ebx
  802bbe:	85 c0                	test   %eax,%eax
  802bc0:	78 46                	js     802c08 <nsipc_recv+0x77>
		assert(r < 1600 && r <= len);
  802bc2:	3d 3f 06 00 00       	cmp    $0x63f,%eax
  802bc7:	7f 04                	jg     802bcd <nsipc_recv+0x3c>
  802bc9:	39 c6                	cmp    %eax,%esi
  802bcb:	7d 24                	jge    802bf1 <nsipc_recv+0x60>
  802bcd:	c7 44 24 0c 59 28 81 	movl   $0x812859,0xc(%esp)
  802bd4:	00 
  802bd5:	c7 44 24 08 38 28 81 	movl   $0x812838,0x8(%esp)
  802bdc:	00 
  802bdd:	c7 44 24 04 5b 00 00 	movl   $0x5b,0x4(%esp)
  802be4:	00 
  802be5:	c7 04 24 4d 28 81 00 	movl   $0x81284d,(%esp)
  802bec:	e8 bb dc ff ff       	call   8008ac <_panic>
		memmove(mem, nsipcbuf.recvRet.ret_buf, r);
  802bf1:	89 44 24 08          	mov    %eax,0x8(%esp)
  802bf5:	c7 44 24 04 00 70 81 	movl   $0x817000,0x4(%esp)
  802bfc:	00 
  802bfd:	8b 45 0c             	mov    0xc(%ebp),%eax
  802c00:	89 04 24             	mov    %eax,(%esp)
  802c03:	e8 e0 e5 ff ff       	call   8011e8 <memmove>
	}

	return r;
}
  802c08:	89 d8                	mov    %ebx,%eax
  802c0a:	83 c4 10             	add    $0x10,%esp
  802c0d:	5b                   	pop    %ebx
  802c0e:	5e                   	pop    %esi
  802c0f:	5d                   	pop    %ebp
  802c10:	c3                   	ret    

00802c11 <nsipc_connect>:
	return nsipc(NSREQ_CLOSE);
}

int
nsipc_connect(int s, const struct sockaddr *name, socklen_t namelen)
{
  802c11:	55                   	push   %ebp
  802c12:	89 e5                	mov    %esp,%ebp
  802c14:	53                   	push   %ebx
  802c15:	83 ec 14             	sub    $0x14,%esp
  802c18:	8b 5d 10             	mov    0x10(%ebp),%ebx
	nsipcbuf.connect.req_s = s;
  802c1b:	8b 45 08             	mov    0x8(%ebp),%eax
  802c1e:	a3 00 70 81 00       	mov    %eax,0x817000
	memmove(&nsipcbuf.connect.req_name, name, namelen);
  802c23:	89 5c 24 08          	mov    %ebx,0x8(%esp)
  802c27:	8b 45 0c             	mov    0xc(%ebp),%eax
  802c2a:	89 44 24 04          	mov    %eax,0x4(%esp)
  802c2e:	c7 04 24 04 70 81 00 	movl   $0x817004,(%esp)
  802c35:	e8 ae e5 ff ff       	call   8011e8 <memmove>
	nsipcbuf.connect.req_namelen = namelen;
  802c3a:	89 1d 14 70 81 00    	mov    %ebx,0x817014
	return nsipc(NSREQ_CONNECT);
  802c40:	b8 05 00 00 00       	mov    $0x5,%eax
  802c45:	e8 06 fe ff ff       	call   802a50 <nsipc>
}
  802c4a:	83 c4 14             	add    $0x14,%esp
  802c4d:	5b                   	pop    %ebx
  802c4e:	5d                   	pop    %ebp
  802c4f:	c3                   	ret    

00802c50 <nsipc_bind>:
	return r;
}

int
nsipc_bind(int s, struct sockaddr *name, socklen_t namelen)
{
  802c50:	55                   	push   %ebp
  802c51:	89 e5                	mov    %esp,%ebp
  802c53:	53                   	push   %ebx
  802c54:	83 ec 14             	sub    $0x14,%esp
  802c57:	8b 5d 10             	mov    0x10(%ebp),%ebx
	nsipcbuf.bind.req_s = s;
  802c5a:	8b 45 08             	mov    0x8(%ebp),%eax
  802c5d:	a3 00 70 81 00       	mov    %eax,0x817000
	memmove(&nsipcbuf.bind.req_name, name, namelen);
  802c62:	89 5c 24 08          	mov    %ebx,0x8(%esp)
  802c66:	8b 45 0c             	mov    0xc(%ebp),%eax
  802c69:	89 44 24 04          	mov    %eax,0x4(%esp)
  802c6d:	c7 04 24 04 70 81 00 	movl   $0x817004,(%esp)
  802c74:	e8 6f e5 ff ff       	call   8011e8 <memmove>
	nsipcbuf.bind.req_namelen = namelen;
  802c79:	89 1d 14 70 81 00    	mov    %ebx,0x817014
	return nsipc(NSREQ_BIND);
  802c7f:	b8 02 00 00 00       	mov    $0x2,%eax
  802c84:	e8 c7 fd ff ff       	call   802a50 <nsipc>
}
  802c89:	83 c4 14             	add    $0x14,%esp
  802c8c:	5b                   	pop    %ebx
  802c8d:	5d                   	pop    %ebp
  802c8e:	c3                   	ret    

00802c8f <nsipc_accept>:
	return ipc_recv(NULL, NULL, NULL);
}

int
nsipc_accept(int s, struct sockaddr *addr, socklen_t *addrlen)
{
  802c8f:	55                   	push   %ebp
  802c90:	89 e5                	mov    %esp,%ebp
  802c92:	53                   	push   %ebx
  802c93:	83 ec 14             	sub    $0x14,%esp
	int r;
	
	nsipcbuf.accept.req_s = s;
  802c96:	8b 45 08             	mov    0x8(%ebp),%eax
  802c99:	a3 00 70 81 00       	mov    %eax,0x817000
	if ((r = nsipc(NSREQ_ACCEPT)) >= 0) {
  802c9e:	b8 01 00 00 00       	mov    $0x1,%eax
  802ca3:	e8 a8 fd ff ff       	call   802a50 <nsipc>
  802ca8:	89 c3                	mov    %eax,%ebx
  802caa:	85 c0                	test   %eax,%eax
  802cac:	78 26                	js     802cd4 <nsipc_accept+0x45>
		struct Nsret_accept *ret = &nsipcbuf.acceptRet;
		memmove(addr, &ret->ret_addr, ret->ret_addrlen);
  802cae:	a1 10 70 81 00       	mov    0x817010,%eax
  802cb3:	89 44 24 08          	mov    %eax,0x8(%esp)
  802cb7:	c7 44 24 04 00 70 81 	movl   $0x817000,0x4(%esp)
  802cbe:	00 
  802cbf:	8b 45 0c             	mov    0xc(%ebp),%eax
  802cc2:	89 04 24             	mov    %eax,(%esp)
  802cc5:	e8 1e e5 ff ff       	call   8011e8 <memmove>
		*addrlen = ret->ret_addrlen;
  802cca:	a1 10 70 81 00       	mov    0x817010,%eax
  802ccf:	8b 55 10             	mov    0x10(%ebp),%edx
  802cd2:	89 02                	mov    %eax,(%edx)
	}
	return r;
}
  802cd4:	89 d8                	mov    %ebx,%eax
  802cd6:	83 c4 14             	add    $0x14,%esp
  802cd9:	5b                   	pop    %ebx
  802cda:	5d                   	pop    %ebp
  802cdb:	c3                   	ret    
  802cdc:	00 00                	add    %al,(%eax)
	...

00802ce0 <free>:
	return v;
}

void
free(void *v)
{
  802ce0:	55                   	push   %ebp
  802ce1:	89 e5                	mov    %esp,%ebp
  802ce3:	57                   	push   %edi
  802ce4:	56                   	push   %esi
  802ce5:	53                   	push   %ebx
  802ce6:	83 ec 1c             	sub    $0x1c,%esp
  802ce9:	8b 45 08             	mov    0x8(%ebp),%eax
	uint8_t *c;
	uint32_t *ref;

	if (v == 0)
  802cec:	85 c0                	test   %eax,%eax
  802cee:	0f 84 b8 00 00 00    	je     802dac <free+0xcc>
		return;
	assert(mbegin <= (uint8_t*) v && (uint8_t*) v < mend);
  802cf4:	8b 3d c4 28 81 00    	mov    0x8128c4,%edi
  802cfa:	39 c7                	cmp    %eax,%edi
  802cfc:	77 0a                	ja     802d08 <free+0x28>
  802cfe:	8b 35 c8 28 81 00    	mov    0x8128c8,%esi
  802d04:	39 f0                	cmp    %esi,%eax
  802d06:	72 24                	jb     802d2c <free+0x4c>
  802d08:	c7 44 24 0c 70 28 81 	movl   $0x812870,0xc(%esp)
  802d0f:	00 
  802d10:	c7 44 24 08 38 28 81 	movl   $0x812838,0x8(%esp)
  802d17:	00 
  802d18:	c7 44 24 04 7a 00 00 	movl   $0x7a,0x4(%esp)
  802d1f:	00 
  802d20:	c7 04 24 9e 28 81 00 	movl   $0x81289e,(%esp)
  802d27:	e8 80 db ff ff       	call   8008ac <_panic>

	c = ROUNDDOWN(v, PGSIZE);
  802d2c:	89 c3                	mov    %eax,%ebx
  802d2e:	81 e3 00 f0 ff ff    	and    $0xfffff000,%ebx
  802d34:	eb 42                	jmp    802d78 <free+0x98>

	while (vpt[VPN(c)] & PTE_CONTINUED) {
		sys_page_unmap(0, c);
  802d36:	89 5c 24 04          	mov    %ebx,0x4(%esp)
  802d3a:	c7 04 24 00 00 00 00 	movl   $0x0,(%esp)
  802d41:	e8 18 e9 ff ff       	call   80165e <sys_page_unmap>
		c += PGSIZE;
  802d46:	81 c3 00 10 00 00    	add    $0x1000,%ebx
		assert(mbegin <= c && c < mend);
  802d4c:	39 df                	cmp    %ebx,%edi
  802d4e:	77 04                	ja     802d54 <free+0x74>
  802d50:	39 de                	cmp    %ebx,%esi
  802d52:	77 24                	ja     802d78 <free+0x98>
  802d54:	c7 44 24 0c ab 28 81 	movl   $0x8128ab,0xc(%esp)
  802d5b:	00 
  802d5c:	c7 44 24 08 38 28 81 	movl   $0x812838,0x8(%esp)
  802d63:	00 
  802d64:	c7 44 24 04 81 00 00 	movl   $0x81,0x4(%esp)
  802d6b:	00 
  802d6c:	c7 04 24 9e 28 81 00 	movl   $0x81289e,(%esp)
  802d73:	e8 34 db ff ff       	call   8008ac <_panic>
		return;
	assert(mbegin <= (uint8_t*) v && (uint8_t*) v < mend);

	c = ROUNDDOWN(v, PGSIZE);

	while (vpt[VPN(c)] & PTE_CONTINUED) {
  802d78:	89 d8                	mov    %ebx,%eax
  802d7a:	c1 e8 0c             	shr    $0xc,%eax
  802d7d:	8b 04 85 00 00 40 ef 	mov    -0x10c00000(,%eax,4),%eax
  802d84:	f6 c4 04             	test   $0x4,%ah
  802d87:	75 ad                	jne    802d36 <free+0x56>
	/*
	 * c is just a piece of this page, so dec the ref count
	 * and maybe free the page.
	 */
	ref = (uint32_t*) (c + PGSIZE - 4);
	if (--(*ref) == 0)
  802d89:	8b 83 fc 0f 00 00    	mov    0xffc(%ebx),%eax
  802d8f:	83 e8 01             	sub    $0x1,%eax
  802d92:	89 83 fc 0f 00 00    	mov    %eax,0xffc(%ebx)
  802d98:	85 c0                	test   %eax,%eax
  802d9a:	75 10                	jne    802dac <free+0xcc>
		sys_page_unmap(0, c);	
  802d9c:	89 5c 24 04          	mov    %ebx,0x4(%esp)
  802da0:	c7 04 24 00 00 00 00 	movl   $0x0,(%esp)
  802da7:	e8 b2 e8 ff ff       	call   80165e <sys_page_unmap>
}
  802dac:	83 c4 1c             	add    $0x1c,%esp
  802daf:	5b                   	pop    %ebx
  802db0:	5e                   	pop    %esi
  802db1:	5f                   	pop    %edi
  802db2:	5d                   	pop    %ebp
  802db3:	c3                   	ret    

00802db4 <malloc>:
	return 1;
}

void*
malloc(size_t n)
{
  802db4:	55                   	push   %ebp
  802db5:	89 e5                	mov    %esp,%ebp
  802db7:	57                   	push   %edi
  802db8:	56                   	push   %esi
  802db9:	53                   	push   %ebx
  802dba:	83 ec 1c             	sub    $0x1c,%esp
	int i, cont;
	int nwrap;
	uint32_t *ref;
	void *v;

	if (mptr == 0)
  802dbd:	83 3d d0 83 81 00 00 	cmpl   $0x0,0x8183d0
  802dc4:	75 0a                	jne    802dd0 <malloc+0x1c>
		mptr = mbegin;
  802dc6:	a1 c4 28 81 00       	mov    0x8128c4,%eax
  802dcb:	a3 d0 83 81 00       	mov    %eax,0x8183d0

	n = ROUNDUP(n, 4);
  802dd0:	8b 45 08             	mov    0x8(%ebp),%eax
  802dd3:	83 c0 03             	add    $0x3,%eax
  802dd6:	83 e0 fc             	and    $0xfffffffc,%eax
  802dd9:	89 45 f0             	mov    %eax,-0x10(%ebp)

	if (n >= MAXMALLOC)
  802ddc:	3d ff ff 0f 00       	cmp    $0xfffff,%eax
  802de1:	0f 87 90 01 00 00    	ja     802f77 <malloc+0x1c3>
		return 0;

	if ((uintptr_t) mptr % PGSIZE){
  802de7:	8b 0d d0 83 81 00    	mov    0x8183d0,%ecx
  802ded:	f7 c1 ff 0f 00 00    	test   $0xfff,%ecx
  802df3:	74 4a                	je     802e3f <malloc+0x8b>
		 * we're in the middle of a partially
		 * allocated page - can we add this chunk?
		 * the +4 below is for the ref count.
		 */
		ref = (uint32_t*) (ROUNDUP(mptr, PGSIZE) - 4);
		if ((uintptr_t) mptr / PGSIZE == (uintptr_t) (mptr + n - 1 + 4) / PGSIZE) {
  802df5:	8d 1c 01             	lea    (%ecx,%eax,1),%ebx
  802df8:	89 ca                	mov    %ecx,%edx
  802dfa:	c1 ea 0c             	shr    $0xc,%edx
  802dfd:	8d 43 03             	lea    0x3(%ebx),%eax
  802e00:	c1 e8 0c             	shr    $0xc,%eax
  802e03:	39 c2                	cmp    %eax,%edx
  802e05:	75 1c                	jne    802e23 <malloc+0x6f>
		/*
		 * we're in the middle of a partially
		 * allocated page - can we add this chunk?
		 * the +4 below is for the ref count.
		 */
		ref = (uint32_t*) (ROUNDUP(mptr, PGSIZE) - 4);
  802e07:	8d 81 ff 0f 00 00    	lea    0xfff(%ecx),%eax
  802e0d:	25 00 f0 ff ff       	and    $0xfffff000,%eax
		if ((uintptr_t) mptr / PGSIZE == (uintptr_t) (mptr + n - 1 + 4) / PGSIZE) {
			(*ref)++;
  802e12:	83 40 fc 01          	addl   $0x1,-0x4(%eax)
			v = mptr;
  802e16:	89 ca                	mov    %ecx,%edx
			mptr += n;
  802e18:	89 1d d0 83 81 00    	mov    %ebx,0x8183d0
  802e1e:	e9 59 01 00 00       	jmp    802f7c <malloc+0x1c8>
			return v;
		}
		/*
		 * stop working on this page and move on.
		 */
		free(mptr);	/* drop reference to this page */
  802e23:	89 0c 24             	mov    %ecx,(%esp)
  802e26:	e8 b5 fe ff ff       	call   802ce0 <free>
		mptr = ROUNDDOWN(mptr + PGSIZE, PGSIZE);
  802e2b:	a1 d0 83 81 00       	mov    0x8183d0,%eax
  802e30:	05 00 10 00 00       	add    $0x1000,%eax
  802e35:	25 00 f0 ff ff       	and    $0xfffff000,%eax
  802e3a:	a3 d0 83 81 00       	mov    %eax,0x8183d0
isfree(void *v, size_t n)
{
	uintptr_t va, end_va = (uintptr_t) v + n;

	for (va = (uintptr_t) v; va < end_va; va += PGSIZE)
		if (va >= (uintptr_t) mend
  802e3f:	8b 35 c8 28 81 00    	mov    0x8128c8,%esi
  802e45:	8b 1d d0 83 81 00    	mov    0x8183d0,%ebx
	while (1) {
		if (isfree(mptr, n + 4))
			break;
		mptr += PGSIZE;
		if (mptr == mend) {
			mptr = mbegin;
  802e4b:	c7 45 ec 00 00 00 00 	movl   $0x0,-0x14(%ebp)
	 * runs of more than a page can't have ref counts so we 
	 * flag the PTE entries instead.
	 */
	nwrap = 0;
	while (1) {
		if (isfree(mptr, n + 4))
  802e52:	8b 45 f0             	mov    -0x10(%ebp),%eax
  802e55:	83 c0 04             	add    $0x4,%eax
  802e58:	89 45 e8             	mov    %eax,-0x18(%ebp)
  802e5b:	eb 06                	jmp    802e63 <malloc+0xaf>
			break;
		mptr += PGSIZE;
		if (mptr == mend) {
			mptr = mbegin;
  802e5d:	8b 1d c4 28 81 00    	mov    0x8128c4,%ebx
	 * runs of more than a page can't have ref counts so we 
	 * flag the PTE entries instead.
	 */
	nwrap = 0;
	while (1) {
		if (isfree(mptr, n + 4))
  802e63:	8b 7d e8             	mov    -0x18(%ebp),%edi
static uint8_t *mptr;

static int
isfree(void *v, size_t n)
{
	uintptr_t va, end_va = (uintptr_t) v + n;
  802e66:	89 da                	mov    %ebx,%edx
  802e68:	8d 0c 3b             	lea    (%ebx,%edi,1),%ecx

	for (va = (uintptr_t) v; va < end_va; va += PGSIZE)
  802e6b:	39 cb                	cmp    %ecx,%ebx
  802e6d:	0f 83 d3 00 00 00    	jae    802f46 <malloc+0x192>
		if (va >= (uintptr_t) mend
  802e73:	39 f3                	cmp    %esi,%ebx
  802e75:	72 0b                	jb     802e82 <malloc+0xce>
  802e77:	eb 43                	jmp    802ebc <malloc+0x108>
  802e79:	39 f2                	cmp    %esi,%edx
  802e7b:	90                   	nop    
  802e7c:	8d 74 26 00          	lea    0x0(%esi),%esi
  802e80:	73 3a                	jae    802ebc <malloc+0x108>
  802e82:	89 d0                	mov    %edx,%eax
  802e84:	c1 e8 16             	shr    $0x16,%eax
  802e87:	8b 04 85 00 d0 7b ef 	mov    -0x10843000(,%eax,4),%eax
  802e8e:	a8 01                	test   $0x1,%al
  802e90:	74 10                	je     802ea2 <malloc+0xee>
  802e92:	89 d0                	mov    %edx,%eax
  802e94:	c1 e8 0c             	shr    $0xc,%eax
  802e97:	8b 04 85 00 00 40 ef 	mov    -0x10c00000(,%eax,4),%eax
  802e9e:	a8 01                	test   $0x1,%al
  802ea0:	75 1a                	jne    802ebc <malloc+0x108>
static int
isfree(void *v, size_t n)
{
	uintptr_t va, end_va = (uintptr_t) v + n;

	for (va = (uintptr_t) v; va < end_va; va += PGSIZE)
  802ea2:	81 c2 00 10 00 00    	add    $0x1000,%edx
  802ea8:	39 d1                	cmp    %edx,%ecx
  802eaa:	77 cd                	ja     802e79 <malloc+0xc5>
  802eac:	89 1d d0 83 81 00    	mov    %ebx,0x8183d0
  802eb2:	be 00 00 00 00       	mov    $0x0,%esi
  802eb7:	e9 9b 00 00 00       	jmp    802f57 <malloc+0x1a3>
	 */
	nwrap = 0;
	while (1) {
		if (isfree(mptr, n + 4))
			break;
		mptr += PGSIZE;
  802ebc:	81 c3 00 10 00 00    	add    $0x1000,%ebx
		if (mptr == mend) {
  802ec2:	3b 1d c8 28 81 00    	cmp    0x8128c8,%ebx
  802ec8:	75 99                	jne    802e63 <malloc+0xaf>
			mptr = mbegin;
			if (++nwrap == 2)
  802eca:	83 45 ec 01          	addl   $0x1,-0x14(%ebp)
  802ece:	83 7d ec 02          	cmpl   $0x2,-0x14(%ebp)
